(dp0
S'Tomato'
p1
S'tomato sauce'
p2
sS'Cauliflower'
p3
S'cauliflower'
p4
sS'Onions'
p5
S'red onion'
p6
sS'Coconut Oil'
p7
S'oil, coconut'
p8
sS'Carrots'
p9
S'carrots, fresh'
p10
sS'Avocado'
p11
S'avocado'
p12
sS'Ginger'
p13
S'ginger root'
p14
sS'Celery'
p15
S'celery root'
p16
sS'Brussel Sprouts'
p17
S'brussels sprouts, fresh'
p18
sS'Garlic'
p19
S'garlic powder'
p20
sS'Peppers'
p21
S'bell pepper'
p22
sS'Vitamin K'
p23
S'Vit K'
p24
sS'Salt'
p25
S'Sea Salt'
p26
sS'Turmeric (Curcumin)'
p27
S'turmeric, ground'
p28
sS'Omega3'
p29
S'Omega3'
p30
s.