(dp0
S'butternut squash & red lentil dal with seedy topping'
p1
(lp2
(imodel
Meal
p3
(dp4
S'nutrition'
p5
(dp6
S'moly'
p7
S'5.72 mcg'
p8
sS'prot'
p9
S'15.37 g'
p10
sS'iodine'
p11
S'0.6 mcg'
p12
sS'vit d-iu'
p13
S'0.0 iu'
p14
sS'alc'
p15
S'0.0 g'
p16
sS'caff'
p17
S'0.0 mg'
p18
sS'sel'
p19
S'0.88 mcg'
p20
sS'zinc'
p21
S'0.31 mg'
p22
sS'vitamin k'
p23
S'100.01 mcg'
p24
sS'folate'
p25
S'77.53 mcg'
p26
sS'transfat'
p27
S'0.0 g'
p28
sS'wgt'
p29
S'443.59 g'
p30
sS'polyfat'
p31
S'0.11 g'
p32
sS'cals'
p33
S'264.12 kcal'
p34
sS'totsolfib'
p35
S'0.26 g'
p36
sS'sugar'
p37
S'5.94 g'
p38
sS'disacc'
p39
S'0.43 g'
p40
sS'vit a-rae'
p41
S'331.7 mcg'
p42
sS'monsac'
p43
S'2.68 g'
p44
sS'vit d-mcg'
p45
S'0.0 mcg'
p46
sS'fatcals'
p47
S'33.26 kcal'
p48
sS'biot'
p49
S'1.67 mcg'
p50
sS'caroten'
p51
S'663.4 mcg'
p52
sS'betacaro'
p53
S'2179.26 mcg'
p54
sS'potassium'
p55
S'768.18 mg'
p56
sS'ocarb'
p57
S'26.79 g'
p58
sS'chln'
p59
S'20.36 mg'
p60
sS'fiber'
p61
S'11.72 g'
p62
sS'vit b3'
p63
S'0.88 mg'
p64
sS'vit b2'
p65
S'0.05 mg'
p66
sS'vit b1'
p67
S'0.19 mg'
p68
sS'vit b6'
p69
S'0.21 mg'
p70
sS'fat'
p71
S'3.7 g'
p72
sS'water'
p73
S'288.22 g'
p74
sS'vit b12'
p75
S'0.0 mcg'
p76
sS'copp'
p77
S'0.11 mg'
p78
sS'panto'
p79
S'0.5 mg'
p80
sS'satcals'
p81
S'17.81 kcal'
p82
sS'magn'
p83
S'47.01 mg'
p84
sS'vit e-a-toco'
p85
S'0.79 mg'
p86
sS'satfat'
p87
S'1.98 g'
p88
sS'carb'
p89
S'44.86 g'
p90
sS'vit a-iu'
p91
S'6633.97 iu'
p92
sS'chrom'
p93
S'0.08 mcg'
p94
sS'vit b3-ne'
p95
S'1.23 mg'
p96
sS'retinol'
p97
S'0.0 mcg'
p98
sS'vit c'
p99
S'37.15 mg'
p100
sS'fol_dfe'
p101
S'41.07 mcg dfe'
p102
sS'fluor'
p103
S'0.13 mg'
p104
sS'phos'
p105
S'47.99 mg'
p106
sS'sodium'
p107
S'765.3 mg'
p108
sS'chol'
p109
S'0.0 mg'
p110
sS'monofat'
p111
S'0.18 g'
p112
sS'iron'
p113
S'4.25 mg'
p114
sS'mang'
p115
S'0.7 mg'
p116
sS'calc'
p117
S'94.44 mg'
p118
sS'omega6'
p119
S'0.08 g'
p120
sS'omega3'
p121
S'0.03 g'
p122
sS'quantity'
p123
S'1.0 '
p124
ssS'supplierID'
p125
S'Euphebe'
p126
sS'ingredients'
p127
(dp128
S'tomato'
p129
S'72.29'
p130
sS'coriander'
p131
S'0.47'
p132
sS'butternut squash'
p133
S'48.67'
p134
sS'sea salt'
p135
S'1.80019325'
p136
sS'cauliflower'
p137
S'35.44'
p138
sS'onion'
p139
S'30.24'
p140
sS'spinach'
p141
S'19.37'
p142
sS'coconut oil'
p143
S'2.27'
p144
sS'cumin'
p145
S'0.47'
p146
sS'ginger'
p147
S'7.56'
p148
sS'turmeric (curcumin)'
p149
S'0.47'
p150
sS'water'
p151
S'177.6'
p152
sS'lemon juice'
p153
S'2.54'
p154
sS'garlic'
p155
S'0.94'
p156
sS'lentil'
p157
S'42.05'
p158
sS'paprika'
p159
S'0.47'
p160
sS'saffron powder'
p161
S'0.47'
p162
sS'spicy powder'
p163
S'0.47'
p164
ssS'price'
p165
I0
sS'_id'
p166
S''
p167
sS'type'
p168
g167
sS'name'
p169
S'butternut squash & red lentil dal'
p170
sbasS'puy lentil & cabbage burger with roasted veggies'
p171
(lp172
(imodel
Meal
p173
(dp174
g5
(dp175
S'moly'
p176
S'3.82 mcg'
p177
sS'prot'
p178
S'11.35 g'
p179
sS'iodine'
p180
S'0.53 mcg'
p181
sS'vit d-iu'
p182
S'0.0 iu'
p183
sS'alc'
p184
S'0.0 g'
p185
sS'caff'
p186
S'0.0 mg'
p187
sS'sel'
p188
S'0.35 mcg'
p189
sS'zinc'
p190
S'0.21 mg'
p191
sS'vitamin k'
p192
S'25.59 mcg'
p193
sS'folate'
p194
S'16.26 mcg'
p195
sS'transfat'
p196
S'0.0 g'
p197
sS'wgt'
p198
S'180.71 g'
p199
sS'polyfat'
p200
S'1.15 g'
p201
sS'cals'
p202
S'264.08 kcal'
p203
sS'totsolfib'
p204
S'2.07 g'
p205
sS'sugar'
p206
S'5.44 g'
p207
sS'disacc'
p208
S'1.29 g'
p209
sS'vit a-rae'
p210
S'217.1 mcg'
p211
sS'monsac'
p212
S'1.98 g'
p213
sS'vit d-mcg'
p214
S'0.0 mcg'
p215
sS'fatcals'
p216
S'44.95 kcal'
p217
sS'biot'
p218
S'1.03 mcg'
p219
sS'caroten'
p220
S'434.2 mcg'
p221
sS'betacaro'
p222
S'2183.73 mcg'
p223
sS'potassium'
p224
S'333.01 mg'
p225
sS'ocarb'
p226
S'29.69 g'
p227
sS'chln'
p228
S'8.54 mg'
p229
sS'fiber'
p230
S'8.28 g'
p231
sS'vit b3'
p232
S'0.41 mg'
p233
sS'vit b2'
p234
S'0.05 mg'
p235
sS'vit b1'
p236
S'0.18 mg'
p237
sS'vit b6'
p238
S'0.13 mg'
p239
sS'fat'
p240
S'5.03 g'
p241
sS'water'
p242
S'103.97 g'
p243
sS'vit b12'
p244
S'0.0 mcg'
p245
sS'copp'
p246
S'0.05 mg'
p247
sS'panto'
p248
S'0.15 mg'
p249
sS'satcals'
p250
S'6.81 kcal'
p251
sS'magn'
p252
S'50.34 mg'
p253
sS'vit e-a-toco'
p254
S'0.55 mg'
p255
sS'satfat'
p256
S'0.76 g'
p257
sS'carb'
p258
S'43.43 g'
p259
sS'vit a-iu'
p260
S'4341.99 iu'
p261
sS'chrom'
p262
S'0.17 mcg'
p263
sS'vit b3-ne'
p264
S'0.58 mg'
p265
sS'retinol'
p266
S'0.0 mcg'
p267
sS'vit c'
p268
S'19.6 mg'
p269
sS'fol_dfe'
p270
S'16.26 mcg dfe'
p271
sS'fluor'
p272
S'0.03 mg'
p273
sS'phos'
p274
S'158.11 mg'
p275
sS'sodium'
p276
S'252.29 mg'
p277
sS'chol'
p278
S'0.0 mg'
p279
sS'monofat'
p280
S'2.34 g'
p281
sS'iron'
p282
S'4.11 mg'
p283
sS'mang'
p284
S'0.25 mg'
p285
sS'calc'
p286
S'76.98 mg'
p287
sS'omega6'
p288
S'0.24 g'
p289
sS'omega3'
p290
S'0.03 g'
p291
sS'quantity'
p292
S'1.0 '
p293
ssg125
g126
sg127
(dp294
S'oats, rolled, old fashioned, dry'
p295
S'35.14'
p296
sS'oil, olive'
p297
S'1.97'
p298
sg163
S'0.48'
p299
sg139
S'26.58'
p300
sS'cabbage, red, fresh, chopped'
p301
S'25.69'
p302
sS'basil, dried, ground'
p303
S'0.61'
p304
sS'water, tap'
p305
S'34.53'
p306
sS'lentils, french green, dry'
p307
S'28.94'
p308
sS'cumin seeds, ground'
p309
S'0.48'
p310
sS'carrot'
p311
S'24.22'
p312
sg155
S'1.48'
p313
sS'sea salt'
p314
S'0.57'
p315
ssg165
I0
sg166
g167
sg168
g167
sg169
S'puy lentil & cabbage burger'
p316
sbasS'chickpea & maitake tacos with corn tortillas'
p317
(lp318
(imodel
Meal
p319
(dp320
g5
(dp321
S'moly'
p322
S'2.54 mcg'
p323
sS'prot'
p324
S'18.56 g'
p325
sS'iodine'
p326
S'1.01 mcg'
p327
sS'vit d-iu'
p328
S'1446.79 iu'
p329
sS'alc'
p330
S'0.0 g'
p331
sS'caff'
p332
S'0.0 mg'
p333
sS'sel'
p334
S'3.09 mcg'
p335
sS'zinc'
p336
S'1.88 mg'
p337
sS'vitamin k'
p338
S'58.56 mcg'
p339
sS'folate'
p340
S'222.96 mcg'
p341
sS'transfat'
p342
S'0.0 g'
p343
sS'wgt'
p344
S'380.99 g'
p345
sS'polyfat'
p346
S'4.72 g'
p347
sS'cals'
p348
S'512.52 kcal'
p349
sS'totsolfib'
p350
S'1.3 g'
p351
sS'sugar'
p352
S'12.31 g'
p353
sS'disacc'
p354
S'0.93 g'
p355
sS'vit a-rae'
p356
S'47.18 mcg'
p357
sS'monsac'
p358
S'3.89 g'
p359
sS'vit d-mcg'
p360
S'36.2 mcg'
p361
sS'fatcals'
p362
S'239.34 kcal'
p363
sS'biot'
p364
S'1.77 mcg'
p365
sS'caroten'
p366
S'94.36 mcg'
p367
sS'betacaro'
p368
S'12.35 mcg'
p369
sS'potassium'
p370
S'549.48 mg'
p371
sS'ocarb'
p372
S'25.47 g'
p373
sS'chln'
p374
S'98.34 mg'
p375
sS'fiber'
p376
S'10.51 g'
p377
sS'vit b3'
p378
S'9.0 mg'
p379
sS'vit b2'
p380
S'0.39 mg'
p381
sS'vit b1'
p382
S'0.35 mg'
p383
sS'vit b6'
p384
S'0.29 mg'
p385
sS'fat'
p386
S'26.63 g'
p387
sS'water'
p388
S'244.83 g'
p389
sS'vit b12'
p390
S'0.0 mcg'
p391
sS'copp'
p392
S'0.55 mg'
p393
sS'panto'
p394
S'0.88 mg'
p395
sS'satcals'
p396
S'36.87 kcal'
p397
sS'magn'
p398
S'50.1 mg'
p399
sS'vit e-a-toco'
p400
S'0.57 mg'
p401
sS'satfat'
p402
S'4.1 g'
p403
sS'carb'
p404
S'48.29 g'
p405
sS'vit a-iu'
p406
S'943.6 iu'
p407
sS'chrom'
p408
S'0.0 mcg'
p409
sS'vit b3-ne'
p410
S'10.86 mg'
p411
sS'retinol'
p412
S'0.0 mcg'
p413
sS'vit c'
p414
S'18.72 mg'
p415
sS'fol_dfe'
p416
S'201.62 mcg dfe'
p417
sS'fluor'
p418
S'0.05 mg'
p419
sS'phos'
p420
S'184.66 mg'
p421
sS'sodium'
p422
S'756.2 mg'
p423
sS'chol'
p424
S'0.0 mg'
p425
sS'monofat'
p426
S'14.47 g'
p427
sS'iron'
p428
S'5.53 mg'
p429
sS'mang'
p430
S'6.56 mg'
p431
sS'calc'
p432
S'78.45 mg'
p433
sS'omega6'
p434
S'1.11 g'
p435
sS'omega3'
p436
S'0.05 g'
p437
sS'quantity'
p438
S'1.0 '
p439
ssg125
g126
sg127
(dp440
S'oil, olive'
p441
S'2.1'
p442
sS'mushrooms, maitake, fresh, diced'
p443
S'128.83'
p444
sg139
S'50.71'
p445
sg141
S'11.34'
p446
sS'cashews, raw, whole'
p447
S'49.95'
p448
sS'water, tap'
p449
S'37.93'
p450
sS'chickpeas, dry'
p451
S'29.61'
p452
sg155
S'9.13'
p453
sS'pepper, hot'
p454
S'22.68'
p455
sS'sea salt'
p456
S'1.871067'
p457
ssg165
I0
sg166
g167
sg168
g167
sg169
S'chickpea & maitake tacos'
p458
sbasS'veggie heavy spanakopita with chickpea toast and olive and almond crumble'
p459
(lp460
(imodel
Meal
p461
(dp462
g5
(dp463
S'moly'
p464
S'6.69 mcg'
p465
sS'prot'
p466
S'8.72 g'
p467
sS'iodine'
p468
S'0.71 mcg'
p469
sS'vit d-iu'
p470
S'0.0 iu'
p471
sS'alc'
p472
S'0.0 g'
p473
sS'caff'
p474
S'0.0 mg'
p475
sS'sel'
p476
S'10.05 mcg'
p477
sS'zinc'
p478
S'1.38 mg'
p479
sS'vitamin k'
p480
S'620.47 mcg'
p481
sS'folate'
p482
S'276.4 mcg'
p483
sS'transfat'
p484
S'0.0 g'
p485
sS'wgt'
p486
S'384.08 g'
p487
sS'polyfat'
p488
S'0.76 g'
p489
sS'cals'
p490
S'163.37 kcal'
p491
sS'totsolfib'
p492
S'0.37 g'
p493
sS'sugar'
p494
S'9.18 g'
p495
sS'disacc'
p496
S'0.72 g'
p497
sS'vit a-rae'
p498
S'924.75 mcg'
p499
sS'monsac'
p500
S'8.42 g'
p501
sS'vit d-mcg'
p502
S'0.0 mcg'
p503
sS'fatcals'
p504
S'56.38 kcal'
p505
sS'biot'
p506
S'4.0 mcg'
p507
sS'caroten'
p508
S'1849.51 mcg'
p509
sS'betacaro'
p510
S'11072.01 mcg'
p511
sS'potassium'
p512
S'1100.82 mg'
p513
sS'ocarb'
p514
S'3.65 g'
p515
sS'chln'
p516
S'72.28 mg'
p517
sS'fiber'
p518
S'8.22 g'
p519
sS'vit b3'
p520
S'2.39 mg'
p521
sS'vit b2'
p522
S'0.43 mg'
p523
sS'vit b1'
p524
S'0.27 mg'
p525
sS'vit b6'
p526
S'0.56 mg'
p527
sS'fat'
p528
S'6.35 g'
p529
sS'water'
p530
S'342.38 g'
p531
sS'vit b12'
p532
S'0.0 mcg'
p533
sS'copp'
p534
S'0.44 mg'
p535
sS'panto'
p536
S'0.81 mg'
p537
sS'satcals'
p538
S'7.42 kcal'
p539
sS'magn'
p540
S'148.12 mg'
p541
sS'vit e-a-toco'
p542
S'6.39 mg'
p543
sS'satfat'
p544
S'0.82 g'
p545
sS'carb'
p546
S'21.16 g'
p547
sS'vit a-iu'
p548
S'18495.06 iu'
p549
sS'chrom'
p550
S'0.33 mcg'
p551
sS'vit b3-ne'
p552
S'5.25 mg'
p553
sS'retinol'
p554
S'0.0 mcg'
p555
sS'vit c'
p556
S'52.78 mg'
p557
sS'fol_dfe'
p558
S'276.4 mcg dfe'
p559
sS'fluor'
p560
S'0.0 mg'
p561
sS'phos'
p562
S'147.0 mg'
p563
sS'sodium'
p564
S'385.96 mg'
p565
sS'chol'
p566
S'0.0 mg'
p567
sS'monofat'
p568
S'3.42 g'
p569
sS'iron'
p570
S'4.56 mg'
p571
sS'mang'
p572
S'1.4 mg'
p573
sS'calc'
p574
S'251.98 mg'
p575
sS'omega6'
p576
S'0.59 g'
p577
sS'omega3'
p578
S'0.17 g'
p579
sS'quantity'
p580
S'1.0 '
p581
ssg125
g126
sg127
(dp582
S'tomatoes, cherry, red, fresh, year round average'
p583
S'47.33'
p584
sg129
S'82.65'
p585
sS'oil, olive'
p586
S'4.58'
p587
sg137
S'50.93'
p588
sg139
S'35.56'
p589
sS'vinegar, balsamic'
p590
S'5.42'
p591
sS'parsley'
p592
S'2.4'
p593
sg155
S'3.84'
p594
sS'sea salt'
p595
S'0.26'
p596
sS'spinach, frozen, leaf'
p597
S'151.12'
p598
ssg165
I0
sg166
g167
sg168
g167
sg169
S'veggie spanakopita'
p599
sba(imodel
Meal
p600
(dp601
g5
(dp602
S'moly'
p603
S'6.5 mcg'
p604
sS'prot'
p605
S'4.67 g'
p606
sS'iodine'
p607
S'0.44 mcg'
p608
sS'vit d-iu'
p609
S'0.0 iu'
p610
sS'alc'
p611
S'0.0 g'
p612
sS'caff'
p613
S'0.0 mg'
p614
sS'sel'
p615
S'0.91 mcg'
p616
sS'zinc'
p617
S'0.69 mg'
p618
sS'vitamin k'
p619
S'0.0 mcg'
p620
sS'folate'
p621
S'10.04 mcg'
p622
sS'transfat'
p623
S'0.0 g'
p624
sS'wgt'
p625
S'48.94 g'
p626
sS'polyfat'
p627
S'2.72 g'
p628
sS'cals'
p629
S'189.13 kcal'
p630
sS'totsolfib'
p631
S'0.33 g'
p632
sS'sugar'
p633
S'1.0 g'
p634
sS'disacc'
p635
S'0.89 g'
p636
sS'vit a-rae'
p637
S'0.03 mcg'
p638
sS'monsac'
p639
S'0.11 g'
p640
sS'vit d-mcg'
p641
S'0.0 mcg'
p642
sS'fatcals'
p643
S'147.23 kcal'
p644
sS'biot'
p645
S'14.12 mcg'
p646
sS'caroten'
p647
S'0.05 mcg'
p648
sS'betacaro'
p649
S'0.24 mcg'
p650
sS'potassium'
p651
S'163.37 mg'
p652
sS'ocarb'
p653
S'4.16 g'
p654
sS'chln'
p655
S'11.57 mg'
p656
sS'fiber'
p657
S'2.76 g'
p658
sS'vit b3'
p659
S'0.8 mg'
p660
sS'vit b2'
p661
S'0.25 mg'
p662
sS'vit b1'
p663
S'0.05 mg'
p664
sS'vit b6'
p665
S'0.03 mg'
p666
sS'fat'
p667
S'16.36 g'
p668
sS'water'
p669
S'2.54 g'
p670
sS'vit b12'
p671
S'0.0 mcg'
p672
sS'copp'
p673
S'0.23 mg'
p674
sS'panto'
p675
S'0.11 mg'
p676
sS'satcals'
p677
S'7.55 kcal'
p678
sS'magn'
p679
S'59.64 mg'
p680
sS'vit e-a-toco'
p681
S'5.65 mg'
p682
sS'satfat'
p683
S'0.84 g'
p684
sS'carb'
p685
S'7.92 g'
p686
sS'vit a-iu'
p687
S'0.54 iu'
p688
sS'chrom'
p689
S'0.0 mcg'
p690
sS'vit b3-ne'
p691
S'1.53 mg'
p692
sS'retinol'
p693
S'0.0 mcg'
p694
sS'vit c'
p695
S'0.66 mg'
p696
sS'fol_dfe'
p697
S'10.04 mcg dfe'
p698
sS'fluor'
p699
S'0.0 mg'
p700
sS'phos'
p701
S'106.19 mg'
p702
sS'sodium'
p703
S'351.5 mg'
p704
sS'chol'
p705
S'0.0 mg'
p706
sS'monofat'
p707
S'6.96 g'
p708
sS'iron'
p709
S'0.82 mg'
p710
sS'mang'
p711
S'0.48 mg'
p712
sS'calc'
p713
S'59.42 mg'
p714
sS'omega6'
p715
S'2.72 g'
p716
sS'omega3'
p717
S'0.0 g'
p718
sS'quantity'
p719
S'1.0 '
p720
ssg125
g126
sg127
(dp721
S'lemon juice, fresh'
p722
S'1.69'
p723
sS'olives, kalamata'
p724
S'25.2'
p725
sS'almonds, sliced'
p726
S'22.05'
p727
ssg165
I0
sg166
g167
sg168
g167
sg169
S'olive & almond crumble'
p728
sbasS'cremini & shiitake mushroom soup with rosemary oat crumble'
p729
(lp730
(imodel
Meal
p731
(dp732
g5
(dp733
S'moly'
p734
S'2.17 mcg'
p735
sS'prot'
p736
S'12.76 g'
p737
sS'iodine'
p738
S'0.68 mcg'
p739
sS'vit d-iu'
p740
S'4.76 iu'
p741
sS'alc'
p742
S'0.57 g'
p743
sS'caff'
p744
S'0.0 mg'
p745
sS'sel'
p746
S'7.51 mcg'
p747
sS'zinc'
p748
S'1.54 mg'
p749
sS'vitamin k'
p750
S'4.39 mcg'
p751
sS'folate'
p752
S'20.47 mcg'
p753
sS'transfat'
p754
S'0.0 g'
p755
sS'wgt'
p756
S'340.5 g'
p757
sS'polyfat'
p758
S'2.09 g'
p759
sS'cals'
p760
S'326.05 kcal'
p761
sS'totsolfib'
p762
S'0.01 g'
p763
sS'sugar'
p764
S'7.22 g'
p765
sS'disacc'
p766
S'0.36 g'
p767
sS'vit a-rae'
p768
S'39.54 mcg'
p769
sS'monsac'
p770
S'1.78 g'
p771
sS'vit d-mcg'
p772
S'0.11 mcg'
p773
sS'fatcals'
p774
S'134.76 kcal'
p775
sS'biot'
p776
S'1.21 mcg'
p777
sS'caroten'
p778
S'79.08 mcg'
p779
sS'betacaro'
p780
S'461.37 mcg'
p781
sS'potassium'
p782
S'663.99 mg'
p783
sS'ocarb'
p784
S'13.42 g'
p785
sS'chln'
p786
S'8.54 mg'
p787
sS'fiber'
p788
S'13.93 g'
p789
sS'vit b3'
p790
S'1.83 mg'
p791
sS'vit b2'
p792
S'0.18 mg'
p793
sS'vit b1'
p794
S'0.05 mg'
p795
sS'vit b6'
p796
S'0.17 mg'
p797
sS'fat'
p798
S'15.07 g'
p799
sS'water'
p800
S'101.42 g'
p801
sS'vit b12'
p802
S'0.02 mcg'
p803
sS'copp'
p804
S'0.18 mg'
p805
sS'panto'
p806
S'0.77 mg'
p807
sS'satcals'
p808
S'21.27 kcal'
p809
sS'magn'
p810
S'57.4 mg'
p811
sS'vit e-a-toco'
p812
S'0.8 mg'
p813
sS'satfat'
p814
S'2.36 g'
p815
sS'carb'
p816
S'35.44 g'
p817
sS'vit a-iu'
p818
S'790.8 iu'
p819
sS'chrom'
p820
S'0.09 mcg'
p821
sS'vit b3-ne'
p822
S'2.22 mg'
p823
sS'retinol'
p824
S'0.0 mcg'
p825
sS'vit c'
p826
S'10.97 mg'
p827
sS'fol_dfe'
p828
S'20.47 mcg dfe'
p829
sS'fluor'
p830
S'0.01 mg'
p831
sS'phos'
p832
S'171.41 mg'
p833
sS'sodium'
p834
S'665.44 mg'
p835
sS'chol'
p836
S'0.0 mg'
p837
sS'monofat'
p838
S'9.15 g'
p839
sS'iron'
p840
S'4.49 mg'
p841
sS'mang'
p842
S'0.24 mg'
p843
sS'calc'
p844
S'98.0 mg'
p845
sS'omega6'
p846
S'0.55 g'
p847
sS'omega3'
p848
S'0.05 g'
p849
sS'quantity'
p850
S'1.0 '
p851
ssg125
g126
sg127
(dp852
S'oil, olive'
p853
S'5.4'
p854
sg163
S'0.57'
p855
sg139
S'34.02'
p856
sS'thyme, fresh'
p857
S'0.57'
p858
sS'cashews, raw, whole'
p859
S'20.78'
p860
sS'sea salt'
p861
S'1.59'
p862
sS'water, tap'
p863
S'15.78'
p864
sS'mushrooms, shiitake, fresh'
p865
S'22.68'
p866
sS'wine, cooking, white'
p867
S'6'
p868
sS'lemon juice, fresh'
p869
S'6.1'
p870
sS'bean'
p871
S'28.35'
p872
sS'rosemary, fresh'
p873
S'0.57'
p874
sS'shallots, fresh, chopped'
p875
S'9.41'
p876
sS'chives, ground'
p877
S'2.83'
p878
sS'mushrooms, brown, fresh, sliced'
p879
S'22.68'
p880
sS'euphebe organic vegetable stock'
p881
S'163.17'
p882
ssg165
I0
sg166
g167
sg168
g167
sg169
S'cremini & shiitake mushroom soup'
p883
sbasS'power veggie burger with sweet potato and parsnip fries and real ketchup'
p884
(lp885
(imodel
Meal
p886
(dp887
g5
(dp888
S'moly'
p889
S'11.99 mcg'
p890
sS'prot'
p891
S'3.35 g'
p892
sS'iodine'
p893
S'0.0 mcg'
p894
sS'vit d-iu'
p895
S'0.0 iu'
p896
sS'alc'
p897
S'0.0 g'
p898
sS'caff'
p899
S'0.0 mg'
p900
sS'sel'
p901
S'2.89 mcg'
p902
sS'zinc'
p903
S'1.07 mg'
p904
sS'vitamin k'
p905
S'29.64 mcg'
p906
sS'folate'
p907
S'93.72 mcg'
p908
sS'transfat'
p909
S'0.0 g'
p910
sS'wgt'
p911
S'241.88 g'
p912
sS'polyfat'
p913
S'0.09 g'
p914
sS'cals'
p915
S'204.43 kcal'
p916
sS'totsolfib'
p917
S'1.8 g'
p918
sS'sugar'
p919
S'10.77 g'
p920
sS'disacc'
p921
S'3.02 g'
p922
sS'vit a-rae'
p923
S'852.15 mcg'
p924
sS'monsac'
p925
S'1.99 g'
p926
sS'vit d-mcg'
p927
S'0.0 mcg'
p928
sS'fatcals'
p929
S'13.17 kcal'
p930
sS'biot'
p931
S'0.12 mcg'
p932
sS'caroten'
p933
S'1704.3 mcg'
p934
sS'betacaro'
p935
S'10221.96 mcg'
p936
sS'potassium'
p937
S'855.44 mg'
p938
sS'ocarb'
p939
S'25.5 g'
p940
sS'chln'
p941
S'14.8 mg'
p942
sS'fiber'
p943
S'9.54 g'
p944
sS'vit b3'
p945
S'1.51 mg'
p946
sS'vit b2'
p947
S'0.13 mg'
p948
sS'vit b1'
p949
S'0.2 mg'
p950
sS'vit b6'
p951
S'0.36 mg'
p952
sS'fat'
p953
S'1.46 g'
p954
sS'water'
p955
S'188.05 g'
p956
sS'vit b12'
p957
S'0.0 mcg'
p958
sS'copp'
p959
S'0.33 mg'
p960
sS'panto'
p961
S'1.68 mg'
p962
sS'satcals'
p963
S'8.47 kcal'
p964
sS'magn'
p965
S'65.02 mg'
p966
sS'vit e-a-toco'
p967
S'2.11 mg'
p968
sS'satfat'
p969
S'0.94 g'
p970
sS'carb'
p971
S'46.19 g'
p972
sS'vit a-iu'
p973
S'17043.02 iu'
p974
sS'chrom'
p975
S'0.0 mcg'
p976
sS'vit b3-ne'
p977
S'2.13 mg'
p978
sS'retinol'
p979
S'0.0 mcg'
p980
sS'vit c'
p981
S'23.28 mg'
p982
sS'fol_dfe'
p983
S'93.72 mcg dfe'
p984
sS'fluor'
p985
S'0.0 mg'
p986
sS'phos'
p987
S'141.79 mg'
p988
sS'sodium'
p989
S'352.7 mg'
p990
sS'chol'
p991
S'0.0 mg'
p992
sS'monofat'
p993
S'0.2 g'
p994
sS'iron'
p995
S'1.48 mg'
p996
sS'mang'
p997
S'0.99 mg'
p998
sS'calc'
p999
S'80.6 mg'
p1000
sS'omega6'
p1001
S'0.08 g'
p1002
sS'omega3'
p1003
S'0.01 g'
p1004
sS'quantity'
p1005
S'1.0 '
p1006
ssg125
g126
sg127
(dp1007
S'parsnips'
p1008
S'119.91'
p1009
sg163
S'0.03'
p1010
sS'chili powder'
p1011
S'0.11'
p1012
sg143
S'1.04'
p1013
sS'paprika'
p1014
S'0.07'
p1015
sS'sweet potatoes'
p1016
S'119.91'
p1017
sg155
S'0.04'
p1018
sS'oregano'
p1019
S'0.07'
p1020
sS'sea salt'
p1021
S'0.7087375'
p1022
ssg165
I0
sg166
g167
sg168
g167
sg169
S'sweet potato and parsnip fries'
p1023
sbasS'roasted chickpea & tahini soup'
p1024
(lp1025
(imodel
Meal
p1026
(dp1027
g5
(dp1028
S'moly'
p1029
S'1.45 mcg'
p1030
sS'prot'
p1031
S'15.25 g'
p1032
sS'iodine'
p1033
S'0.58 mcg'
p1034
sS'vit d-iu'
p1035
S'0.0 iu'
p1036
sS'alc'
p1037
S'0.0 g'
p1038
sS'caff'
p1039
S'0.0 mg'
p1040
sS'sel'
p1041
S'2.5 mcg'
p1042
sS'zinc'
p1043
S'1.64 mg'
p1044
sS'vitamin k'
p1045
S'121.61 mcg'
p1046
sS'folate'
p1047
S'312.53 mcg'
p1048
sS'transfat'
p1049
S'0.0 g'
p1050
sS'wgt'
p1051
S'421.99 g'
p1052
sS'polyfat'
p1053
S'3.76 g'
p1054
sS'cals'
p1055
S'389.34 kcal'
p1056
sS'totsolfib'
p1057
S'2.0 g'
p1058
sS'sugar'
p1059
S'8.62 g'
p1060
sS'disacc'
p1061
S'0.29 g'
p1062
sS'vit a-rae'
p1063
S'146.45 mcg'
p1064
sS'monsac'
p1065
S'0.94 g'
p1066
sS'vit d-mcg'
p1067
S'0.0 mcg'
p1068
sS'fatcals'
p1069
S'113.73 kcal'
p1070
sS'biot'
p1071
S'1.01 mcg'
p1072
sS'caroten'
p1073
S'292.9 mcg'
p1074
sS'betacaro'
p1075
S'132.26 mcg'
p1076
sS'potassium'
p1077
S'417.55 mg'
p1078
sS'ocarb'
p1079
S'33.88 g'
p1080
sS'chln'
p1081
S'47.43 mg'
p1082
sS'fiber'
p1083
S'10.27 g'
p1084
sS'vit b3'
p1085
S'1.16 mg'
p1086
sS'vit b2'
p1087
S'0.12 mg'
p1088
sS'vit b1'
p1089
S'0.34 mg'
p1090
sS'vit b6'
p1091
S'0.3 mg'
p1092
sS'fat'
p1093
S'12.64 g'
p1094
sS'water'
p1095
S'42.86 g'
p1096
sS'vit b12'
p1097
S'0.0 mcg'
p1098
sS'copp'
p1099
S'0.43 mg'
p1100
sS'panto'
p1101
S'0.77 mg'
p1102
sS'satcals'
p1103
S'15.51 kcal'
p1104
sS'magn'
p1105
S'64.09 mg'
p1106
sS'vit e-a-toco'
p1107
S'0.54 mg'
p1108
sS'satfat'
p1109
S'1.72 g'
p1110
sS'carb'
p1111
S'53.91 g'
p1112
sS'vit a-iu'
p1113
S'2929.05 iu'
p1114
sS'chrom'
p1115
S'0.08 mcg'
p1116
sS'vit b3-ne'
p1117
S'2.76 mg'
p1118
sS'retinol'
p1119
S'0.0 mcg'
p1120
sS'vit c'
p1121
S'13.78 mg'
p1122
sS'fol_dfe'
p1123
S'266.98 mcg dfe'
p1124
sS'fluor'
p1125
S'0.01 mg'
p1126
sS'phos'
p1127
S'178.23 mg'
p1128
sS'sodium'
p1129
S'766.92 mg'
p1130
sS'chol'
p1131
S'0.0 mg'
p1132
sS'monofat'
p1133
S'5.2 g'
p1134
sS'iron'
p1135
S'4.9 mg'
p1136
sS'mang'
p1137
S'10.07 mg'
p1138
sS'calc'
p1139
S'153.93 mg'
p1140
sS'omega6'
p1141
S'2.76 g'
p1142
sS'omega3'
p1143
S'0.08 g'
p1144
sS'quantity'
p1145
S'1.0 '
p1146
ssg125
g126
sg127
(dp1147
g163
S'0.51'
p1148
sg139
S'28.96'
p1149
sg141
S'24.2'
p1150
sS'cashews, raw, whole'
p1151
S'12.87'
p1152
sS'potato, yukon gold, fresh, diced'
p1153
S'70.17'
p1154
sS'broth, vegetable, low sodium'
p1155
S'215.21'
p1156
sS'cumin seeds, ground'
p1157
S'0.53'
p1158
sS'chickpeas, dry'
p1159
S'45.66'
p1160
sS'coriander seed, ground'
p1161
S'0.47'
p1162
sg155
S'4.96'
p1163
sS'water, tap'
p1164
S'9.78'
p1165
sS'tahini'
p1166
S'6.64'
p1167
sg454
S'0.51'
p1168
sS'sea salt'
p1169
S'1.53'
p1170
ssg165
I0
sg166
g167
sg168
g167
sg169
S'roasted chickpea & tahini soup'
p1171
sbasS'tomato & cannellini bean soup'
p1172
(lp1173
(imodel
Meal
p1174
(dp1175
g5
(dp1176
S'moly'
p1177
S'3.48 mcg'
p1178
sS'prot'
p1179
S'17.16 g'
p1180
sS'iodine'
p1181
S'0.84 mcg'
p1182
sS'vit d-iu'
p1183
S'0.0 iu'
p1184
sS'alc'
p1185
S'0.0 g'
p1186
sS'caff'
p1187
S'0.0 mg'
p1188
sS'sel'
p1189
S'8.76 mcg'
p1190
sS'zinc'
p1191
S'2.06 mg'
p1192
sS'vitamin k'
p1193
S'103.65 mcg'
p1194
sS'folate'
p1195
S'303.93 mcg'
p1196
sS'transfat'
p1197
S'0.0 g'
p1198
sS'wgt'
p1199
S'483.05 g'
p1200
sS'polyfat'
p1201
S'0.59 g'
p1202
sS'cals'
p1203
S'318.45 kcal'
p1204
sS'totsolfib'
p1205
S'4.95 g'
p1206
sS'sugar'
p1207
S'8.51 g'
p1208
sS'disacc'
p1209
S'1.46 g'
p1210
sS'vit a-rae'
p1211
S'317.66 mcg'
p1212
sS'monsac'
p1213
S'3.59 g'
p1214
sS'vit d-mcg'
p1215
S'0.0 mcg'
p1216
sS'fatcals'
p1217
S'25.09 kcal'
p1218
sS'biot'
p1219
S'3.56 mcg'
p1220
sS'caroten'
p1221
S'635.32 mcg'
p1222
sS'betacaro'
p1223
S'2422.5 mcg'
p1224
sS'potassium'
p1225
S'1447.86 mg'
p1226
sS'ocarb'
p1227
S'4.3 g'
p1228
sS'chln'
p1229
S'10.39 mg'
p1230
sS'fiber'
p1231
S'20.98 g'
p1232
sS'vit b3'
p1233
S'1.7 mg'
p1234
sS'vit b2'
p1235
S'0.2 mg'
p1236
sS'vit b1'
p1237
S'0.53 mg'
p1238
sS'vit b6'
p1239
S'0.42 mg'
p1240
sS'fat'
p1241
S'2.82 g'
p1242
sS'water'
p1243
S'121.8 g'
p1244
sS'vit b12'
p1245
S'0.0 mcg'
p1246
sS'copp'
p1247
S'0.5 mg'
p1248
sS'panto'
p1249
S'0.76 mg'
p1250
sS'satcals'
p1251
S'4.16 kcal'
p1252
sS'magn'
p1253
S'147.75 mg'
p1254
sS'vit e-a-toco'
p1255
S'1.17 mg'
p1256
sS'satfat'
p1257
S'0.46 g'
p1258
sS'carb'
p1259
S'57.77 g'
p1260
sS'vit a-iu'
p1261
S'6353.2 iu'
p1262
sS'chrom'
p1263
S'0.13 mcg'
p1264
sS'vit b3-ne'
p1265
S'4.58 mg'
p1266
sS'retinol'
p1267
S'0.0 mcg'
p1268
sS'vit c'
p1269
S'17.93 mg'
p1270
sS'fol_dfe'
p1271
S'265.81 mcg dfe'
p1272
sS'fluor'
p1273
S'0.02 mg'
p1274
sS'phos'
p1275
S'321.46 mg'
p1276
sS'sodium'
p1277
S'770.0 mg'
p1278
sS'chol'
p1279
S'0.0 mg'
p1280
sS'monofat'
p1281
S'1.23 g'
p1282
sS'iron'
p1283
S'6.99 mg'
p1284
sS'mang'
p1285
S'1.21 mg'
p1286
sS'calc'
p1287
S'161.01 mg'
p1288
sS'omega6'
p1289
S'0.43 g'
p1290
sS'omega3'
p1291
S'0.17 g'
p1292
sS'quantity'
p1293
S'1.0 '
p1294
ssg125
g126
sg127
(dp1295
g129
S'52.5'
p1296
sS'oil, olive'
p1297
S'1.54'
p1298
sg163
S'0.15'
p1299
sg139
S'42.12'
p1300
sS'bay leaf, dried'
p1301
S'0.07'
p1302
sg141
S'20.25'
p1303
sS'cumin seeds, ground'
p1304
S'0.25'
p1305
sS'lemon juice, fresh'
p1306
S'3.49'
p1307
sg871
S'63.99'
p1308
sg311
S'27.54'
p1309
sg155
S'1.62'
p1310
sS'sea salt'
p1311
S'0.9922325'
p1312
sS'broth, vegetable, organic'
p1313
S'219.69'
p1314
sS'sage, fresh'
p1315
S'0.25'
p1316
ssg165
I0
sg166
g167
sg168
g167
sg169
S'tomato & cannellini bean soup'
p1317
sbas.