(dp0
S'breakfast bowl with smoky tomato sauce'
p1
(lp2
(imodel
Meal
p3
(dp4
S'nutrition'
p5
(dp6
S'moly'
p7
S'0.49 mcg'
p8
sS'prot'
p9
S'0.82 g'
p10
sS'iodine'
p11
S'0.12 mcg'
p12
sS'insoluble fiber'
p13
S'1.11 g'
p14
sS'vit d-iu'
p15
S'0.0 iu'
p16
sS'alc'
p17
S'0.0 g'
p18
sS'sel'
p19
S'0.26 mcg'
p20
sS'zinc'
p21
S'0.13 mg'
p22
sS'caff'
p23
S'0.0 mg'
p24
sS'folate'
p25
S'6.97 mcg'
p26
sS'transfat'
p27
S'0.0 g'
p28
sS'wgt'
p29
S'50.43 g'
p30
sS'polyfat'
p31
S'0.05 g'
p32
sS'cals'
p33
S'28.25 kcal'
p34
sS'totsolfib'
p35
S'0.04 g'
p36
sS'sugar'
p37
S'4.7 g'
p38
sS'disacc'
p39
S'0.2 g'
p40
sS'vit a-rae'
p41
S'35.2 mcg'
p42
sS'monsac'
p43
S'1.84 g'
p44
sS'vit d-mcg'
p45
S'0.0 mcg'
p46
sS'fatcals'
p47
S'1.41 kcal'
p48
sS'biot'
p49
S'0.22 mcg'
p50
sS'caroten'
p51
S'70.41 mcg'
p52
sS'totfib'
p53
S'1.15 g'
p54
sS'betacaro'
p55
S'357.81 mcg'
p56
sS'potassium'
p57
S'159.55 mg'
p58
sS'ocarb'
p59
S'0.68 g'
p60
sS'chln'
p61
S'5.48 mg'
p62
sS'vit b3'
p63
S'0.5 mg'
p64
sS'vit b2'
p65
S'0.02 mg'
p66
sS'vit b1'
p67
S'0.03 mg'
p68
sS'vit b6'
p69
S'0.07 mg'
p70
sS'fat'
p71
S'0.16 g'
p72
sS'water'
p73
S'41.4 g'
p74
sS'vit b12'
p75
S'0.0 mcg'
p76
sS'copp'
p77
S'0.07 mg'
p78
sS'panto'
p79
S'0.12 mg'
p80
sS'satcals'
p81
S'0.24 kcal'
p82
sS'magn'
p83
S'9.08 mg'
p84
sS'vit e-a-toco'
p85
S'0.51 mg'
p86
sS'satfat'
p87
S'0.03 g'
p88
sS'carb'
p89
S'6.52 g'
p90
sS'vit a-iu'
p91
S'704.05 iu'
p92
sS'chrom'
p93
S'0.02 mcg'
p94
sS'vit b3-ne'
p95
S'0.59 mg'
p96
sS'retinol'
p97
S'0.0 mcg'
p98
sS'vit c'
p99
S'4.06 mg'
p100
sS'vit k'
p101
S'4.0 mcg'
p102
sS'fol_dfe'
p103
S'6.97 mcg dfe'
p104
sS'fluor'
p105
S'0.0 mg'
p106
sS'phos'
p107
S'15.15 mg'
p108
sS'sodium'
p109
S'159.5 mg'
p110
sS'chol'
p111
S'0.0 mg'
p112
sS'monofat'
p113
S'0.04 g'
p114
sS'iron'
p115
S'0.68 mg'
p116
sS'mang'
p117
S'0.09 mg'
p118
sS'calc'
p119
S'19.35 mg'
p120
sS'omega6'
p121
S'0.05 g'
p122
sS'omega3'
p123
S'0.0 g'
p124
sS'quantity'
p125
S'1.0 '
p126
ssS'supplierID'
p127
S'Euphebe'
p128
sS'ingredients'
p129
(dp130
S'carrots, fresh, chopped'
p131
S'3.66'
p132
sS'sea salt, california'
p133
S'0.23'
p134
sS'basil, dried, ground'
p135
S'0.07'
p136
sS'oil'
p137
S'0.03'
p138
sS'tomatoes, crushed, canned'
p139
S'36.58'
p140
sS'onion, yellow, fresh, chopped'
p141
S'6.1'
p142
sS'raisins'
p143
S'3.66'
p144
sS'oregano, dried, leaves'
p145
S'0.05'
p146
sS'chili peppers, red, crushed flakes'
p147
S'0.03'
p148
sS'black pepper, ground'
p149
S'0.03'
p150
ssS'_id'
p151
S''
p152
sS'type'
p153
g152
sS'quantity'
p154
I0
sS'name'
p155
S'tomato sauce'
p156
sbasS'white lentil, tomato & fennel faux-sotto'
p157
(lp158
(imodel
Meal
p159
(dp160
g5
(dp161
S'moly'
p162
S'10.21 mcg'
p163
sS'prot'
p164
S'17.11 g'
p165
sS'iodine'
p166
S'2.27 mcg'
p167
sS'insoluble fiber'
p168
S'12.4 g'
p169
sS'vit d-iu'
p170
S'0.0 iu'
p171
sS'alc'
p172
S'2.29 g'
p173
sS'sel'
p174
S'1.86 mcg'
p175
sS'zinc'
p176
S'2.45 mg'
p177
sS'caff'
p178
S'0.0 mg'
p179
sS'folate'
p180
S'302.43 mcg'
p181
sS'transfat'
p182
S'0.0 g'
p183
sS'wgt'
p184
S'675.76 g'
p185
sS'polyfat'
p186
S'1.2 g'
p187
sS'cals'
p188
S'433.37 kcal'
p189
sS'totsolfib'
p190
S'0.58 g'
p191
sS'sugar'
p192
S'20.18 g'
p193
sS'disacc'
p194
S'1.92 g'
p195
sS'vit a-rae'
p196
S'275.98 mcg'
p197
sS'monsac'
p198
S'4.77 g'
p199
sS'vit d-mcg'
p200
S'0.0 mcg'
p201
sS'fatcals'
p202
S'103.36 kcal'
p203
sS'biot'
p204
S'4.2 mcg'
p205
sS'caroten'
p206
S'551.97 mcg'
p207
sS'totfib'
p208
S'12.98 g'
p209
sS'betacaro'
p210
S'2698.3 mcg'
p211
sS'potassium'
p212
S'1720.41 mg'
p213
sS'ocarb'
p214
S'33.81 g'
p215
sS'chln'
p216
S'65.79 mg'
p217
sS'vit b3'
p218
S'4.77 mg'
p219
sS'vit b2'
p220
S'0.46 mg'
p221
sS'vit b1'
p222
S'0.86 mg'
p223
sS'vit b6'
p224
S'0.75 mg'
p225
sS'fat'
p226
S'11.58 g'
p227
sS'water'
p228
S'361.82 g'
p229
sS'vit b12'
p230
S'0.29 mcg'
p231
sS'copp'
p232
S'0.52 mg'
p233
sS'panto'
p234
S'2.05 mg'
p235
sS'satcals'
p236
S'47.56 kcal'
p237
sS'magn'
p238
S'96.42 mg'
p239
sS'vit e-a-toco'
p240
S'1.6 mg'
p241
sS'satfat'
p242
S'5.28 g'
p243
sS'carb'
p244
S'67.74 g'
p245
sS'vit a-iu'
p246
S'5519.57 iu'
p247
sS'chrom'
p248
S'0.09 mcg'
p249
sS'vit b3-ne'
p250
S'6.86 mg'
p251
sS'retinol'
p252
S'0.0 mcg'
p253
sS'vit c'
p254
S'536.7 mg'
p255
sS'vit k'
p256
S'73.66 mcg'
p257
sS'fol_dfe'
p258
S'302.43 mcg dfe'
p259
sS'fluor'
p260
S'0.0 mg'
p261
sS'phos'
p262
S'305.25 mg'
p263
sS'sodium'
p264
S'762.8 mg'
p265
sS'chol'
p266
S'0.0 mg'
p267
sS'monofat'
p268
S'4.38 g'
p269
sS'iron'
p270
S'7.38 mg'
p271
sS'mang'
p272
S'1.32 mg'
p273
sS'calc'
p274
S'150.31 mg'
p275
sS'omega6'
p276
S'0.89 g'
p277
sS'omega3'
p278
S'0.1 g'
p279
sS'quantity'
p280
S'1.0 '
p281
ssg127
g128
sg129
(dp282
S'tomato'
p283
S'9.64'
p284
sS'garlic cloves, fresh'
p285
S'3.97'
p286
sg137
S'5.4'
p287
sS'thyme, dried, leaves'
p288
S'0.57'
p289
sS'coconut milk, canned'
p290
S'22.6'
p291
sS'black pepper, ground'
p292
S'0.57'
p293
sS'onion, white, fresh, chopped'
p294
S'113.4'
p295
sS'broth, vegetable, low sodium'
p296
S'181.5'
p297
sS'wine, cooking, white'
p298
S'24'
p299
sS'fennel, fresh, bulb'
p300
S'90.72'
p301
sS'vinegar, balsamic'
p302
S'6.4'
p303
sS'nutritional yeast'
p304
S'0.25'
p305
sS'lentil'
p306
S'45.36'
p307
sS'sea salt'
p308
S'1.2757275'
p309
ssg151
g152
sg153
g152
sg154
I0
sg155
S'caramelized onion, tomato & fennel faux-sotto'
p310
sba(imodel
Meal
p311
(dp312
g5
(dp313
S'moly'
p314
S'10.21 mcg'
p315
sS'prot'
p316
S'17.82 g'
p317
sS'iodine'
p318
S'2.27 mcg'
p319
sS'insoluble fiber'
p320
S'12.36 g'
p321
sS'vit d-iu'
p322
S'0.0 iu'
p323
sS'alc'
p324
S'2.29 g'
p325
sS'sel'
p326
S'1.86 mcg'
p327
sS'zinc'
p328
S'2.45 mg'
p329
sS'caff'
p330
S'0.0 mg'
p331
sS'folate'
p332
S'302.43 mcg'
p333
sS'transfat'
p334
S'0.0 g'
p335
sS'wgt'
p336
S'664.21 g'
p337
sS'polyfat'
p338
S'1.2 g'
p339
sS'cals'
p340
S'436.48 kcal'
p341
sS'totsolfib'
p342
S'0.58 g'
p343
sS'sugar'
p344
S'21.59 g'
p345
sS'disacc'
p346
S'1.92 g'
p347
sS'vit a-rae'
p348
S'229.11 mcg'
p349
sS'monsac'
p350
S'4.77 g'
p351
sS'vit d-mcg'
p352
S'0.0 mcg'
p353
sS'fatcals'
p354
S'103.36 kcal'
p355
sS'biot'
p356
S'4.2 mcg'
p357
sS'caroten'
p358
S'458.22 mcg'
p359
sS'totfib'
p360
S'12.94 g'
p361
sS'betacaro'
p362
S'2698.3 mcg'
p363
sS'potassium'
p364
S'1720.41 mg'
p365
sS'ocarb'
p366
S'33.06 g'
p367
sS'chln'
p368
S'65.79 mg'
p369
sS'vit b3'
p370
S'4.77 mg'
p371
sS'vit b2'
p372
S'0.46 mg'
p373
sS'vit b1'
p374
S'0.86 mg'
p375
sS'vit b6'
p376
S'0.75 mg'
p377
sS'fat'
p378
S'11.58 g'
p379
sS'water'
p380
S'361.82 g'
p381
sS'vit b12'
p382
S'0.29 mcg'
p383
sS'copp'
p384
S'0.52 mg'
p385
sS'panto'
p386
S'2.05 mg'
p387
sS'satcals'
p388
S'47.56 kcal'
p389
sS'magn'
p390
S'96.42 mg'
p391
sS'vit e-a-toco'
p392
S'1.6 mg'
p393
sS'satfat'
p394
S'5.28 g'
p395
sS'carb'
p396
S'68.36 g'
p397
sS'vit a-iu'
p398
S'4582.07 iu'
p399
sS'chrom'
p400
S'0.09 mcg'
p401
sS'vit b3-ne'
p402
S'6.86 mg'
p403
sS'retinol'
p404
S'0.0 mcg'
p405
sS'vit c'
p406
S'536.7 mg'
p407
sS'vit k'
p408
S'73.66 mcg'
p409
sS'fol_dfe'
p410
S'302.43 mcg dfe'
p411
sS'fluor'
p412
S'0.0 mg'
p413
sS'phos'
p414
S'305.25 mg'
p415
sS'sodium'
p416
S'761.64 mg'
p417
sS'chol'
p418
S'0.0 mg'
p419
sS'monofat'
p420
S'4.38 g'
p421
sS'iron'
p422
S'7.38 mg'
p423
sS'mang'
p424
S'1.32 mg'
p425
sS'calc'
p426
S'135.31 mg'
p427
sS'omega6'
p428
S'0.89 g'
p429
sS'omega3'
p430
S'0.1 g'
p431
sS'quantity'
p432
S'1.0 '
p433
ssg127
g128
sg129
(dp434
g283
S'9.64'
p435
sS'garlic cloves'
p436
S'3.97'
p437
sS'coconut milk'
p438
S'22.6'
p439
sg137
S'5.4'
p440
sS'thyme'
p441
S'0.57'
p442
sS'euphebe organic vegetable stock'
p443
S'169.97'
p444
sS'nutritional yeast'
p445
S'0.25'
p446
sS'balsamic vinegar'
p447
S'6.4'
p448
sS'fennel'
p449
S'90.72'
p450
sS'black pepper'
p451
S'0.57'
p452
sS'sea salt'
p453
S'1.28'
p454
sS'white cooking wine'
p455
S'24'
p456
sS'lentils'
p457
S'45.36'
p458
sS'tomatoes'
p459
S'170.1'
p460
sS'white onion'
p461
S'113.4'
p462
ssg151
g152
sg153
g152
sg154
I0
sg155
S'white lentil, tomato & fennel faux-sotto'
p463
sbasS'puy lentil & cabbage burger with roasted veggies'
p464
(lp465
(imodel
Meal
p466
(dp467
g5
(dp468
S'moly'
p469
S'3.82 mcg'
p470
sS'prot'
p471
S'11.35 g'
p472
sS'iodine'
p473
S'0.53 mcg'
p474
sS'insoluble fiber'
p475
S'6.21 g'
p476
sS'vit d-iu'
p477
S'0.0 iu'
p478
sS'alc'
p479
S'0.0 g'
p480
sS'sel'
p481
S'0.35 mcg'
p482
sS'zinc'
p483
S'0.21 mg'
p484
sS'caff'
p485
S'0.0 mg'
p486
sS'folate'
p487
S'16.26 mcg'
p488
sS'transfat'
p489
S'0.0 g'
p490
sS'wgt'
p491
S'180.71 g'
p492
sS'polyfat'
p493
S'1.15 g'
p494
sS'cals'
p495
S'264.08 kcal'
p496
sS'totsolfib'
p497
S'2.07 g'
p498
sS'sugar'
p499
S'5.44 g'
p500
sS'disacc'
p501
S'1.29 g'
p502
sS'vit a-rae'
p503
S'217.1 mcg'
p504
sS'monsac'
p505
S'1.98 g'
p506
sS'vit d-mcg'
p507
S'0.0 mcg'
p508
sS'fatcals'
p509
S'44.95 kcal'
p510
sS'biot'
p511
S'1.03 mcg'
p512
sS'caroten'
p513
S'434.2 mcg'
p514
sS'totfib'
p515
S'8.28 g'
p516
sS'betacaro'
p517
S'2183.73 mcg'
p518
sS'potassium'
p519
S'333.01 mg'
p520
sS'ocarb'
p521
S'29.69 g'
p522
sS'chln'
p523
S'8.54 mg'
p524
sS'vit b3'
p525
S'0.41 mg'
p526
sS'vit b2'
p527
S'0.05 mg'
p528
sS'vit b1'
p529
S'0.18 mg'
p530
sS'vit b6'
p531
S'0.13 mg'
p532
sS'fat'
p533
S'5.03 g'
p534
sS'water'
p535
S'103.97 g'
p536
sS'vit b12'
p537
S'0.0 mcg'
p538
sS'copp'
p539
S'0.05 mg'
p540
sS'panto'
p541
S'0.15 mg'
p542
sS'satcals'
p543
S'6.81 kcal'
p544
sS'magn'
p545
S'50.34 mg'
p546
sS'vit e-a-toco'
p547
S'0.55 mg'
p548
sS'satfat'
p549
S'0.76 g'
p550
sS'carb'
p551
S'43.43 g'
p552
sS'vit a-iu'
p553
S'4341.99 iu'
p554
sS'chrom'
p555
S'0.17 mcg'
p556
sS'vit b3-ne'
p557
S'0.58 mg'
p558
sS'retinol'
p559
S'0.0 mcg'
p560
sS'vit c'
p561
S'19.6 mg'
p562
sS'vit k'
p563
S'25.59 mcg'
p564
sS'fol_dfe'
p565
S'16.26 mcg dfe'
p566
sS'fluor'
p567
S'0.03 mg'
p568
sS'phos'
p569
S'158.11 mg'
p570
sS'sodium'
p571
S'252.29 mg'
p572
sS'chol'
p573
S'0.0 mg'
p574
sS'monofat'
p575
S'2.34 g'
p576
sS'iron'
p577
S'4.11 mg'
p578
sS'mang'
p579
S'0.25 mg'
p580
sS'calc'
p581
S'76.98 mg'
p582
sS'omega6'
p583
S'0.24 g'
p584
sS'omega3'
p585
S'0.03 g'
p586
sS'quantity'
p587
S'1.0 '
p588
ssg127
g128
sg129
(dp589
S'carrots, fresh, chopped'
p590
S'24.22'
p591
sS'oats, rolled, old fashioned, dry'
p592
S'35.14'
p593
sg137
S'1.97'
p594
sS'onion, yellow, fresh, chopped'
p595
S'26.58'
p596
sS'black pepper, ground'
p597
S'0.48'
p598
sS'garlic, minced'
p599
S'1.48'
p600
sS'basil, dried, ground'
p601
S'0.61'
p602
sS'water, tap'
p603
S'34.53'
p604
sS'cumin seeds, ground'
p605
S'0.48'
p606
sg306
S'28.94'
p607
sS'sea salt'
p608
S'0.57'
p609
sS'cabbage'
p610
S'25.69'
p611
ssg151
g152
sg153
g152
sg154
I0
sg155
S'puy lentil & cabbage burger'
p612
sbasS'veggie heavy spanakopita with chickpea toast and olive and almond crumble'
p613
(lp614
(imodel
Meal
p615
(dp616
g5
(dp617
S'moly'
p618
S'6.69 mcg'
p619
sS'prot'
p620
S'8.72 g'
p621
sS'iodine'
p622
S'0.71 mcg'
p623
sS'insoluble fiber'
p624
S'7.85 g'
p625
sS'vit d-iu'
p626
S'0.0 iu'
p627
sS'alc'
p628
S'0.0 g'
p629
sS'sel'
p630
S'10.05 mcg'
p631
sS'zinc'
p632
S'1.38 mg'
p633
sS'caff'
p634
S'0.0 mg'
p635
sS'folate'
p636
S'276.4 mcg'
p637
sS'transfat'
p638
S'0.0 g'
p639
sS'wgt'
p640
S'384.08 g'
p641
sS'polyfat'
p642
S'0.76 g'
p643
sS'cals'
p644
S'163.37 kcal'
p645
sS'totsolfib'
p646
S'0.37 g'
p647
sS'sugar'
p648
S'9.18 g'
p649
sS'disacc'
p650
S'0.72 g'
p651
sS'vit a-rae'
p652
S'924.75 mcg'
p653
sS'monsac'
p654
S'8.42 g'
p655
sS'vit d-mcg'
p656
S'0.0 mcg'
p657
sS'fatcals'
p658
S'56.38 kcal'
p659
sS'biot'
p660
S'4.0 mcg'
p661
sS'caroten'
p662
S'1849.51 mcg'
p663
sS'totfib'
p664
S'8.22 g'
p665
sS'betacaro'
p666
S'11072.01 mcg'
p667
sS'potassium'
p668
S'1100.82 mg'
p669
sS'ocarb'
p670
S'3.65 g'
p671
sS'chln'
p672
S'72.28 mg'
p673
sS'vit b3'
p674
S'2.39 mg'
p675
sS'vit b2'
p676
S'0.43 mg'
p677
sS'vit b1'
p678
S'0.27 mg'
p679
sS'vit b6'
p680
S'0.56 mg'
p681
sS'fat'
p682
S'6.35 g'
p683
sS'water'
p684
S'342.38 g'
p685
sS'vit b12'
p686
S'0.0 mcg'
p687
sS'copp'
p688
S'0.44 mg'
p689
sS'panto'
p690
S'0.81 mg'
p691
sS'satcals'
p692
S'7.42 kcal'
p693
sS'magn'
p694
S'148.12 mg'
p695
sS'vit e-a-toco'
p696
S'6.39 mg'
p697
sS'satfat'
p698
S'0.82 g'
p699
sS'carb'
p700
S'21.16 g'
p701
sS'vit a-iu'
p702
S'18495.06 iu'
p703
sS'chrom'
p704
S'0.33 mcg'
p705
sS'vit b3-ne'
p706
S'5.25 mg'
p707
sS'retinol'
p708
S'0.0 mcg'
p709
sS'vit c'
p710
S'52.78 mg'
p711
sS'vit k'
p712
S'620.47 mcg'
p713
sS'fol_dfe'
p714
S'276.4 mcg dfe'
p715
sS'fluor'
p716
S'0.0 mg'
p717
sS'phos'
p718
S'147.0 mg'
p719
sS'sodium'
p720
S'385.96 mg'
p721
sS'chol'
p722
S'0.0 mg'
p723
sS'monofat'
p724
S'3.42 g'
p725
sS'iron'
p726
S'4.56 mg'
p727
sS'mang'
p728
S'1.4 mg'
p729
sS'calc'
p730
S'251.98 mg'
p731
sS'omega6'
p732
S'0.59 g'
p733
sS'omega3'
p734
S'0.17 g'
p735
sS'quantity'
p736
S'1.0 '
p737
ssg127
g128
sg129
(dp738
g283
S'47.33'
p739
sS'parsley, fresh, sprigs'
p740
S'2.4'
p741
sg137
S'4.58'
p742
sS'cauliflower florets, fresh'
p743
S'50.93'
p744
sS'tomatoes, crushed, canned'
p745
S'82.65'
p746
sS'spinach'
p747
S'151.12'
p748
sS'vinegar, balsamic'
p749
S'5.42'
p750
sS'garlic, minced'
p751
S'3.84'
p752
sS'onion, white, fresh, chopped'
p753
S'35.56'
p754
sS'sea salt'
p755
S'0.26'
p756
ssg151
g152
sg153
g152
sg154
I0
sg155
S'veggie spanakopita'
p757
sba(imodel
Meal
p758
(dp759
g5
(dp760
S'moly'
p761
S'6.5 mcg'
p762
sS'prot'
p763
S'4.67 g'
p764
sS'iodine'
p765
S'0.44 mcg'
p766
sS'insoluble fiber'
p767
S'2.43 g'
p768
sS'vit d-iu'
p769
S'0.0 iu'
p770
sS'alc'
p771
S'0.0 g'
p772
sS'sel'
p773
S'0.91 mcg'
p774
sS'zinc'
p775
S'0.69 mg'
p776
sS'caff'
p777
S'0.0 mg'
p778
sS'folate'
p779
S'10.04 mcg'
p780
sS'transfat'
p781
S'0.0 g'
p782
sS'wgt'
p783
S'48.94 g'
p784
sS'polyfat'
p785
S'2.72 g'
p786
sS'cals'
p787
S'189.13 kcal'
p788
sS'totsolfib'
p789
S'0.33 g'
p790
sS'sugar'
p791
S'1.0 g'
p792
sS'disacc'
p793
S'0.89 g'
p794
sS'vit a-rae'
p795
S'0.03 mcg'
p796
sS'monsac'
p797
S'0.11 g'
p798
sS'vit d-mcg'
p799
S'0.0 mcg'
p800
sS'fatcals'
p801
S'147.23 kcal'
p802
sS'biot'
p803
S'14.12 mcg'
p804
sS'caroten'
p805
S'0.05 mcg'
p806
sS'totfib'
p807
S'2.76 g'
p808
sS'betacaro'
p809
S'0.24 mcg'
p810
sS'potassium'
p811
S'163.37 mg'
p812
sS'ocarb'
p813
S'4.16 g'
p814
sS'chln'
p815
S'11.57 mg'
p816
sS'vit b3'
p817
S'0.8 mg'
p818
sS'vit b2'
p819
S'0.25 mg'
p820
sS'vit b1'
p821
S'0.05 mg'
p822
sS'vit b6'
p823
S'0.03 mg'
p824
sS'fat'
p825
S'16.36 g'
p826
sS'water'
p827
S'2.54 g'
p828
sS'vit b12'
p829
S'0.0 mcg'
p830
sS'copp'
p831
S'0.23 mg'
p832
sS'panto'
p833
S'0.11 mg'
p834
sS'satcals'
p835
S'7.55 kcal'
p836
sS'magn'
p837
S'59.64 mg'
p838
sS'vit e-a-toco'
p839
S'5.65 mg'
p840
sS'satfat'
p841
S'0.84 g'
p842
sS'carb'
p843
S'7.92 g'
p844
sS'vit a-iu'
p845
S'0.54 iu'
p846
sS'chrom'
p847
S'0.0 mcg'
p848
sS'vit b3-ne'
p849
S'1.53 mg'
p850
sS'retinol'
p851
S'0.0 mcg'
p852
sS'vit c'
p853
S'0.66 mg'
p854
sS'vit k'
p855
S'0.0 mcg'
p856
sS'fol_dfe'
p857
S'10.04 mcg dfe'
p858
sS'fluor'
p859
S'0.0 mg'
p860
sS'phos'
p861
S'106.19 mg'
p862
sS'sodium'
p863
S'351.5 mg'
p864
sS'chol'
p865
S'0.0 mg'
p866
sS'monofat'
p867
S'6.96 g'
p868
sS'iron'
p869
S'0.82 mg'
p870
sS'mang'
p871
S'0.48 mg'
p872
sS'calc'
p873
S'59.42 mg'
p874
sS'omega6'
p875
S'2.72 g'
p876
sS'omega3'
p877
S'0.0 g'
p878
sS'quantity'
p879
S'1.0 '
p880
ssg127
g128
sg129
(dp881
S'lemon juice, fresh'
p882
S'1.69'
p883
sS'olives, kalamata'
p884
S'25.2'
p885
sS'almonds, sliced'
p886
S'22.05'
p887
ssg151
g152
sg153
g152
sg154
I0
sg155
S'olive & almond crumble'
p888
sbasS'sweet potato & black bean burger with roasted veggies'
p889
(lp890
(imodel
Meal
p891
(dp892
g5
(dp893
S'moly'
p894
S'0.0 mcg'
p895
sS'prot'
p896
S'13.43 g'
p897
sS'iodine'
p898
S'2.74 mcg'
p899
sS'insoluble fiber'
p900
S'10.28 g'
p901
sS'vit d-iu'
p902
S'0.0 iu'
p903
sS'alc'
p904
S'0.0 g'
p905
sS'sel'
p906
S'1.77 mcg'
p907
sS'zinc'
p908
S'1.97 mg'
p909
sS'caff'
p910
S'0.0 mg'
p911
sS'folate'
p912
S'201.63 mcg'
p913
sS'transfat'
p914
S'0.0 g'
p915
sS'wgt'
p916
S'161.33 g'
p917
sS'polyfat'
p918
S'0.81 g'
p919
sS'cals'
p920
S'303.92 kcal'
p921
sS'totsolfib'
p922
S'1.43 g'
p923
sS'sugar'
p924
S'7.37 g'
p925
sS'disacc'
p926
S'4.59 g'
p927
sS'vit a-rae'
p928
S'835.4 mcg'
p929
sS'monsac'
p930
S'0.94 g'
p931
sS'vit d-mcg'
p932
S'0.0 mcg'
p933
sS'fatcals'
p934
S'18.54 kcal'
p935
sS'biot'
p936
S'3.66 mcg'
p937
sS'caroten'
p938
S'1670.79 mcg'
p939
sS'totfib'
p940
S'11.71 g'
p941
sS'betacaro'
p942
S'9984.71 mcg'
p943
sS'potassium'
p944
S'1112.13 mg'
p945
sS'ocarb'
p946
S'34.97 g'
p947
sS'chln'
p948
S'39.89 mg'
p949
sS'vit b3'
p950
S'2.5 mg'
p951
sS'vit b2'
p952
S'0.2 mg'
p953
sS'vit b1'
p954
S'0.55 mg'
p955
sS'vit b6'
p956
S'0.41 mg'
p957
sS'fat'
p958
S'2.06 g'
p959
sS'water'
p960
S'71.88 g'
p961
sS'vit b12'
p962
S'0.0 mcg'
p963
sS'copp'
p964
S'0.56 mg'
p965
sS'panto'
p966
S'1.21 mg'
p967
sS'satcals'
p968
S'3.64 kcal'
p969
sS'magn'
p970
S'116.42 mg'
p971
sS'vit e-a-toco'
p972
S'0.88 mg'
p973
sS'satfat'
p974
S'0.4 g'
p975
sS'carb'
p976
S'59.7 g'
p977
sS'vit a-iu'
p978
S'16707.94 iu'
p979
sS'chrom'
p980
S'0.0 mcg'
p981
sS'vit b3-ne'
p982
S'5.02 mg'
p983
sS'retinol'
p984
S'0.0 mcg'
p985
sS'vit c'
p986
S'18.26 mg'
p987
sS'vit k'
p988
S'11.62 mcg'
p989
sS'fol_dfe'
p990
S'201.63 mcg dfe'
p991
sS'fluor'
p992
S'0.0 mg'
p993
sS'phos'
p994
S'260.75 mg'
p995
sS'sodium'
p996
S'243.93 mg'
p997
sS'chol'
p998
S'0.0 mg'
p999
sS'monofat'
p1000
S'0.41 g'
p1001
sS'iron'
p1002
S'3.63 mg'
p1003
sS'mang'
p1004
S'1.01 mg'
p1005
sS'calc'
p1006
S'99.73 mg'
p1007
sS'omega6'
p1008
S'0.39 g'
p1009
sS'omega3'
p1010
S'0.13 g'
p1011
sS'quantity'
p1012
S'1.0 '
p1013
ssg127
g128
sg129
(dp1014
S'oats, rolled, old fashioned, dry'
p1015
S'11.34'
p1016
sS'onion, red, fresh'
p1017
S'11.34'
p1018
sS'cayenne chili pepper, dried, ground'
p1019
S'0.18'
p1020
sS'millet, dry'
p1021
S'7.09'
p1022
sS'paprika'
p1023
S'0.27'
p1024
sS'cumin seeds, ground'
p1025
S'0.44'
p1026
sS'cilantro, fresh, leaves'
p1027
S'2.21'
p1028
sS'chili powder, eagle, food service'
p1029
S'0.35'
p1030
sS'sea salt'
p1031
S'0.54'
p1032
sS'sweet potatoes, baked, in skin, peeled'
p1033
S'85.05'
p1034
sS'black beans, dry'
p1035
S'42.52'
p1036
ssg151
g152
sg153
g152
sg154
I0
sg155
S'sweet potato and black bean burger'
p1037
sbasS'zucchini farro soup with seed crumble'
p1038
(lp1039
(imodel
Meal
p1040
(dp1041
g5
(dp1042
S'moly'
p1043
S'0.03 mcg'
p1044
sS'prot'
p1045
S'6.44 g'
p1046
sS'iodine'
p1047
S'0.01 mcg'
p1048
sS'insoluble fiber'
p1049
S'5.08 g'
p1050
sS'vit d-iu'
p1051
S'0.0 iu'
p1052
sS'alc'
p1053
S'0.0 g'
p1054
sS'sel'
p1055
S'6.17 mcg'
p1056
sS'zinc'
p1057
S'1.27 mg'
p1058
sS'caff'
p1059
S'0.0 mg'
p1060
sS'folate'
p1061
S'25.24 mcg'
p1062
sS'transfat'
p1063
S'0.0 g'
p1064
sS'wgt'
p1065
S'41.79 g'
p1066
sS'polyfat'
p1067
S'4.44 g'
p1068
sS'cals'
p1069
S'157.1 kcal'
p1070
sS'totsolfib'
p1071
S'0.22 g'
p1072
sS'sugar'
p1073
S'0.31 g'
p1074
sS'disacc'
p1075
S'0.1 g'
p1076
sS'vit a-rae'
p1077
S'12.98 mcg'
p1078
sS'monsac'
p1079
S'0.05 g'
p1080
sS'vit d-mcg'
p1081
S'0.0 mcg'
p1082
sS'fatcals'
p1083
S'120.36 kcal'
p1084
sS'biot'
p1085
S'0.74 mcg'
p1086
sS'caroten'
p1087
S'25.95 mcg'
p1088
sS'totfib'
p1089
S'5.3 g'
p1090
sS'betacaro'
p1091
S'10.54 mcg'
p1092
sS'potassium'
p1093
S'120.95 mg'
p1094
sS'ocarb'
p1095
S'0.94 g'
p1096
sS'chln'
p1097
S'9.3 mg'
p1098
sS'vit b3'
p1099
S'1.22 mg'
p1100
sS'vit b2'
p1101
S'0.04 mg'
p1102
sS'vit b1'
p1103
S'0.16 mg'
p1104
sS'vit b6'
p1105
S'0.13 mg'
p1106
sS'fat'
p1107
S'13.37 g'
p1108
sS'water'
p1109
S'13.82 g'
p1110
sS'vit b12'
p1111
S'0.0 mcg'
p1112
sS'copp'
p1113
S'0.29 mg'
p1114
sS'panto'
p1115
S'0.14 mg'
p1116
sS'satcals'
p1117
S'15.57 kcal'
p1118
sS'magn'
p1119
S'81.9 mg'
p1120
sS'vit e-a-toco'
p1121
S'2.4 mg'
p1122
sS'satfat'
p1123
S'1.73 g'
p1124
sS'carb'
p1125
S'6.62 g'
p1126
sS'vit a-iu'
p1127
S'259.52 iu'
p1128
sS'chrom'
p1129
S'0.0 mcg'
p1130
sS'vit b3-ne'
p1131
S'2.41 mg'
p1132
sS'retinol'
p1133
S'0.0 mcg'
p1134
sS'vit c'
p1135
S'0.43 mg'
p1136
sS'vit k'
p1137
S'0.49 mcg'
p1138
sS'fol_dfe'
p1139
S'25.24 mcg dfe'
p1140
sS'fluor'
p1141
S'0.01 mg'
p1142
sS'phos'
p1143
S'165.29 mg'
p1144
sS'sodium'
p1145
S'97.8 mg'
p1146
sS'chol'
p1147
S'0.0 mg'
p1148
sS'monofat'
p1149
S'3.75 g'
p1150
sS'iron'
p1151
S'1.76 mg'
p1152
sS'mang'
p1153
S'0.56 mg'
p1154
sS'calc'
p1155
S'64.11 mg'
p1156
sS'omega6'
p1157
S'5.01 g'
p1158
sS'omega3'
p1159
S'1.78 g'
p1160
sS'quantity'
p1161
S'1.0 '
p1162
ssg127
g128
sg129
(dp1163
S'garlic cloves, fresh'
p1164
S'0.57'
p1165
sS'chia seeds'
p1166
S'9.07'
p1167
sS'sesame seeds, dried, kernels, decorticated'
p1168
S'6.52'
p1169
sS'onion, white, fresh, chopped'
p1170
S'0.57'
p1171
sS'water, tap'
p1172
S'11.84'
p1173
sS'sunflower seeds, dried, kernels'
p1174
S'6.1'
p1175
sS'pumpkin seeds, dried, kernels'
p1176
S'6.52'
p1177
sS'sea salt'
p1178
S'0.170097'
p1179
sS'sage, fresh'
p1180
S'0.43'
p1181
ssg151
g152
sg153
g152
sg154
I0
sg155
S"rachel's seed crumble"
p1182
sbasS'cremini & shiitake mushroom soup with rosemary oat crumble'
p1183
(lp1184
(imodel
Meal
p1185
(dp1186
g5
(dp1187
S'moly'
p1188
S'2.72 mcg'
p1189
sS'prot'
p1190
S'15.11 g'
p1191
sS'iodine'
p1192
S'0.85 mcg'
p1193
sS'insoluble fiber'
p1194
S'17.57 g'
p1195
sS'vit d-iu'
p1196
S'5.95 iu'
p1197
sS'alc'
p1198
S'0.72 g'
p1199
sS'sel'
p1200
S'9.38 mcg'
p1201
sS'zinc'
p1202
S'1.93 mg'
p1203
sS'caff'
p1204
S'0.0 mg'
p1205
sS'folate'
p1206
S'25.66 mcg'
p1207
sS'transfat'
p1208
S'0.0 g'
p1209
sS'wgt'
p1210
S'463.36 g'
p1211
sS'polyfat'
p1212
S'2.61 g'
p1213
sS'cals'
p1214
S'405.56 kcal'
p1215
sS'totsolfib'
p1216
S'0.01 g'
p1217
sS'sugar'
p1218
S'7.44 g'
p1219
sS'disacc'
p1220
S'0.45 g'
p1221
sS'vit a-rae'
p1222
S'112.05 mcg'
p1223
sS'monsac'
p1224
S'2.22 g'
p1225
sS'vit d-mcg'
p1226
S'0.14 mcg'
p1227
sS'fatcals'
p1228
S'168.52 kcal'
p1229
sS'biot'
p1230
S'1.51 mcg'
p1231
sS'caroten'
p1232
S'224.09 mcg'
p1233
sS'totfib'
p1234
S'17.58 g'
p1235
sS'betacaro'
p1236
S'577.65 mcg'
p1237
sS'potassium'
p1238
S'830.92 mg'
p1239
sS'ocarb'
p1240
S'17.79 g'
p1241
sS'chln'
p1242
S'10.69 mg'
p1243
sS'vit b3'
p1244
S'2.28 mg'
p1245
sS'vit b2'
p1246
S'0.22 mg'
p1247
sS'vit b1'
p1248
S'0.06 mg'
p1249
sS'vit b6'
p1250
S'0.22 mg'
p1251
sS'fat'
p1252
S'18.84 g'
p1253
sS'water'
p1254
S'126.86 g'
p1255
sS'vit b12'
p1256
S'0.03 mcg'
p1257
sS'copp'
p1258
S'0.23 mg'
p1259
sS'panto'
p1260
S'0.97 mg'
p1261
sS'satcals'
p1262
S'26.61 kcal'
p1263
sS'magn'
p1264
S'71.88 mg'
p1265
sS'vit e-a-toco'
p1266
S'1.0 mg'
p1267
sS'satfat'
p1268
S'2.96 g'
p1269
sS'carb'
p1270
S'43.89 g'
p1271
sS'vit a-iu'
p1272
S'2240.93 iu'
p1273
sS'chrom'
p1274
S'0.12 mcg'
p1275
sS'vit b3-ne'
p1276
S'2.77 mg'
p1277
sS'retinol'
p1278
S'0.0 mcg'
p1279
sS'vit c'
p1280
S'13.77 mg'
p1281
sS'vit k'
p1282
S'5.54 mcg'
p1283
sS'fol_dfe'
p1284
S'25.66 mcg dfe'
p1285
sS'fluor'
p1286
S'0.01 mg'
p1287
sS'phos'
p1288
S'214.39 mg'
p1289
sS'sodium'
p1290
S'663.2 mg'
p1291
sS'chol'
p1292
S'0.0 mg'
p1293
sS'monofat'
p1294
S'11.44 g'
p1295
sS'iron'
p1296
S'5.62 mg'
p1297
sS'mang'
p1298
S'0.31 mg'
p1299
sS'calc'
p1300
S'142.87 mg'
p1301
sS'omega6'
p1302
S'0.69 g'
p1303
sS'omega3'
p1304
S'0.06 g'
p1305
sS'quantity'
p1306
S'1.0 '
p1307
ssg127
g128
sg129
(dp1308
S'cannellini beans'
p1309
S'35.44'
p1310
sS'cashews'
p1311
S'25.99'
p1312
sS'chives'
p1313
S'3.54'
p1314
sg137
S'6.75'
p1315
sS'thyme'
p1316
S'0.74'
p1317
sS'brown mushrooms'
p1318
S'28.35'
p1319
sS'water'
p1320
S'19.73'
p1321
sS'lemon juice'
p1322
S'7.63'
p1323
sS'black pepper'
p1324
S'0.74'
p1325
sS'shallots'
p1326
S'11.81'
p1327
sS'sea salt'
p1328
S'1.530873'
p1329
sS'white cooking wine'
p1330
S'7.5'
p1331
sS'organic vegetable stock'
p1332
S'242'
p1333
sS'rosemary'
p1334
S'0.74'
p1335
sS'shiitake mushrooms'
p1336
S'28.35'
p1337
sS'white onion'
p1338
S'42.52'
p1339
ssg151
g152
sg153
g152
sg154
I0
sg155
S'cremini & shiitake soup'
p1340
sba(imodel
Meal
p1341
(dp1342
g5
(dp1343
S'moly'
p1344
S'2.17 mcg'
p1345
sS'iodine'
p1346
S'0.68 mcg'
p1347
sS'insoluble fiber'
p1348
S'13.92 g'
p1349
sS'vit d-iu'
p1350
S'4.76 iu'
p1351
sS'alc'
p1352
S'0.57 g'
p1353
sS'zinc'
p1354
S'1.54 mg'
p1355
sS'caff'
p1356
S'0.0 mg'
p1357
sS'sel'
p1358
S'7.51 mcg'
p1359
sS'transfat'
p1360
S'0.0 g'
p1361
sS'wgt'
p1362
S'340.5 g'
p1363
sS'polyfat'
p1364
S'2.09 g'
p1365
sS'totsolfib'
p1366
S'0.01 g'
p1367
sS'folate'
p1368
S'20.47 mcg'
p1369
sS'disacc'
p1370
S'0.36 g'
p1371
sS'vit a-rae'
p1372
S'39.54 mcg'
p1373
sS'monsac'
p1374
S'1.78 g'
p1375
sS'vit d-mcg'
p1376
S'0.11 mcg'
p1377
sS'fatcals'
p1378
S'134.76 kcal'
p1379
sS'biot'
p1380
S'1.21 mcg'
p1381
sS'caroten'
p1382
S'79.08 mcg'
p1383
sS'totfib'
p1384
S'13.93 g'
p1385
sS'betacaro'
p1386
S'461.37 mcg'
p1387
sS'potassium'
p1388
S'663.99 mg'
p1389
sS'ocarb'
p1390
S'13.42 g'
p1391
sS'chln'
p1392
S'8.54 mg'
p1393
sS'vit b3'
p1394
S'1.83 mg'
p1395
sS'vit b2'
p1396
S'0.18 mg'
p1397
sS'vit b1'
p1398
S'0.05 mg'
p1399
sS'vit b6'
p1400
S'0.17 mg'
p1401
sS'fat'
p1402
S'15.07 g'
p1403
sS'water'
p1404
S'101.42 g'
p1405
sS'vit b12'
p1406
S'0.02 mcg'
p1407
sS'copp'
p1408
S'0.18 mg'
p1409
sS'panto'
p1410
S'0.77 mg'
p1411
sS'satcals'
p1412
S'21.27 kcal'
p1413
sS'magn'
p1414
S'57.4 mg'
p1415
sS'vit e-a-toco'
p1416
S'0.8 mg'
p1417
sS'satfat'
p1418
S'2.36 g'
p1419
sS'carb'
p1420
S'35.44 g'
p1421
sS'vit a-iu'
p1422
S'790.8 iu'
p1423
sS'chrom'
p1424
S'0.09 mcg'
p1425
sS'vit b3-ne'
p1426
S'2.22 mg'
p1427
sS'retinol'
p1428
S'0.0 mcg'
p1429
sS'vit c'
p1430
S'10.97 mg'
p1431
sS'vit k'
p1432
S'4.39 mcg'
p1433
sS'fol_dfe'
p1434
S'20.47 mcg dfe'
p1435
sS'fluor'
p1436
S'0.01 mg'
p1437
sS'phos'
p1438
S'171.41 mg'
p1439
sS'sodium'
p1440
S'665.44 mg'
p1441
sS'chol'
p1442
S'0.0 mg'
p1443
sS'monofat'
p1444
S'9.15 g'
p1445
sS'iron'
p1446
S'4.49 mg'
p1447
sS'mang'
p1448
S'0.24 mg'
p1449
sS'calc'
p1450
S'98.0 mg'
p1451
sS'omega6'
p1452
S'0.55 g'
p1453
sS'omega3'
p1454
S'0.05 g'
p1455
sS'quantity'
p1456
S'1.0 '
p1457
ssg127
g128
sg129
(dp1458
S'cannellini beans'
p1459
S'28.35'
p1460
sS'cashews'
p1461
S'20.78'
p1462
sS'chives'
p1463
S'2.83'
p1464
sg137
S'5.4'
p1465
sS'thyme'
p1466
S'0.57'
p1467
sS'brown mushrooms'
p1468
S'22.68'
p1469
sS'euphebe organic vegetable stock'
p1470
S'163.17'
p1471
sS'water'
p1472
S'15.78'
p1473
sS'lemon juice'
p1474
S'6.1'
p1475
sS'black pepper'
p1476
S'0.57'
p1477
sS'shallots'
p1478
S'9.41'
p1479
sS'white cooking wine'
p1480
S'6'
p1481
sS'sea salt'
p1482
S'1.59'
p1483
sS'rosemary'
p1484
S'0.57'
p1485
sS'shiitake mushrooms'
p1486
S'22.68'
p1487
sS'white onion'
p1488
S'34.02'
p1489
ssg151
g152
sg153
g152
sg154
I0
sg155
S'cremini & shiitake mushroom soup'
p1490
sbasS'creamy tomato soup with herbed garlic croutons'
p1491
(lp1492
(imodel
Meal
p1493
(dp1494
g5
(dp1495
S'moly'
p1496
S'0.0 mcg'
p1497
sS'prot'
p1498
S'2.86 g'
p1499
sS'iodine'
p1500
S'0.0 mcg'
p1501
sS'insoluble fiber'
p1502
S'2.24 g'
p1503
sS'vit d-iu'
p1504
S'0.0 iu'
p1505
sS'alc'
p1506
S'0.0 g'
p1507
sS'sel'
p1508
S'0.03 mcg'
p1509
sS'zinc'
p1510
S'0.05 mg'
p1511
sS'caff'
p1512
S'0.0 mg'
p1513
sS'folate'
p1514
S'1.32 mcg'
p1515
sS'transfat'
p1516
S'0.0 g'
p1517
sS'wgt'
p1518
S'25.66 g'
p1519
sS'polyfat'
p1520
S'0.24 g'
p1521
sS'cals'
p1522
S'75.42 kcal'
p1523
sS'totsolfib'
p1524
S'0.0 g'
p1525
sS'sugar'
p1526
S'0.02 g'
p1527
sS'disacc'
p1528
S'0.0 g'
p1529
sS'vit a-rae'
p1530
S'0.29 mcg'
p1531
sS'monsac'
p1532
S'0.01 g'
p1533
sS'vit d-mcg'
p1534
S'0.0 mcg'
p1535
sS'fatcals'
p1536
S'32.15 kcal'
p1537
sS'biot'
p1538
S'0.19 mcg'
p1539
sS'caroten'
p1540
S'0.58 mcg'
p1541
sS'totfib'
p1542
S'2.24 g'
p1543
sS'betacaro'
p1544
S'3.27 mcg'
p1545
sS'potassium'
p1546
S'80.32 mg'
p1547
sS'ocarb'
p1548
S'7.48 g'
p1549
sS'chln'
p1550
S'0.26 mg'
p1551
sS'vit b3'
p1552
S'0.66 mg'
p1553
sS'vit b2'
p1554
S'0.14 mg'
p1555
sS'vit b1'
p1556
S'0.17 mg'
p1557
sS'vit b6'
p1558
S'0.09 mg'
p1559
sS'fat'
p1560
S'3.61 g'
p1561
sS'water'
p1562
S'0.05 g'
p1563
sS'vit b12'
p1564
S'0.24 mcg'
p1565
sS'copp'
p1566
S'0.01 mg'
p1567
sS'panto'
p1568
S'0.01 mg'
p1569
sS'satcals'
p1570
S'2.89 kcal'
p1571
sS'magn'
p1572
S'2.68 mg'
p1573
sS'vit e-a-toco'
p1574
S'0.39 mg'
p1575
sS'satfat'
p1576
S'0.32 g'
p1577
sS'carb'
p1578
S'9.73 g'
p1579
sS'vit a-iu'
p1580
S'5.78 iu'
p1581
sS'chrom'
p1582
S'0.0 mcg'
p1583
sS'vit b3-ne'
p1584
S'0.68 mg'
p1585
sS'retinol'
p1586
S'0.0 mcg'
p1587
sS'vit c'
p1588
S'0.01 mg'
p1589
sS'vit k'
p1590
S'6.87 mcg'
p1591
sS'fol_dfe'
p1592
S'1.32 mcg dfe'
p1593
sS'fluor'
p1594
S'0.0 mg'
p1595
sS'phos'
p1596
S'3.06 mg'
p1597
sS'sodium'
p1598
S'44.02 mg'
p1599
sS'chol'
p1600
S'0.0 mg'
p1601
sS'monofat'
p1602
S'1.65 g'
p1603
sS'iron'
p1604
S'1.05 mg'
p1605
sS'mang'
p1606
S'0.04 mg'
p1607
sS'calc'
p1608
S'9.22 mg'
p1609
sS'omega6'
p1610
S'0.22 g'
p1611
sS'omega3'
p1612
S'0.02 g'
p1613
sS'quantity'
p1614
S'1.0 '
p1615
ssg127
g128
sg129
(dp1616
S'garlic powder'
p1617
S'0.06'
p1618
sg137
S'2.25'
p1619
sS'oregano, dried, leaves'
p1620
S'0.24'
p1621
sS'nutritional yeast'
p1622
S'0.21'
p1623
sS'basil, dried, leaves'
p1624
S'0.24'
p1625
sS'bread, sprouted whole grain & seed, ezekiel 4:9'
p1626
S'22.67'
p1627
ssg151
g152
sg153
g152
sg154
I0
sg155
S'garlic croutons'
p1628
sbasS'roasted chickpea & tahini soup'
p1629
(lp1630
(imodel
Meal
p1631
(dp1632
g5
(dp1633
S'moly'
p1634
S'1.45 mcg'
p1635
sS'prot'
p1636
S'15.25 g'
p1637
sS'iodine'
p1638
S'0.58 mcg'
p1639
sS'insoluble fiber'
p1640
S'8.27 g'
p1641
sS'vit d-iu'
p1642
S'0.0 iu'
p1643
sS'alc'
p1644
S'0.0 g'
p1645
sS'sel'
p1646
S'2.5 mcg'
p1647
sS'zinc'
p1648
S'1.64 mg'
p1649
sS'caff'
p1650
S'0.0 mg'
p1651
sS'folate'
p1652
S'312.53 mcg'
p1653
sS'transfat'
p1654
S'0.0 g'
p1655
sS'wgt'
p1656
S'421.99 g'
p1657
sS'polyfat'
p1658
S'3.76 g'
p1659
sS'cals'
p1660
S'389.34 kcal'
p1661
sS'totsolfib'
p1662
S'2.0 g'
p1663
sS'sugar'
p1664
S'8.62 g'
p1665
sS'disacc'
p1666
S'0.29 g'
p1667
sS'vit a-rae'
p1668
S'146.45 mcg'
p1669
sS'monsac'
p1670
S'0.94 g'
p1671
sS'vit d-mcg'
p1672
S'0.0 mcg'
p1673
sS'fatcals'
p1674
S'113.73 kcal'
p1675
sS'biot'
p1676
S'1.01 mcg'
p1677
sS'caroten'
p1678
S'292.9 mcg'
p1679
sS'totfib'
p1680
S'10.27 g'
p1681
sS'betacaro'
p1682
S'132.26 mcg'
p1683
sS'potassium'
p1684
S'417.55 mg'
p1685
sS'ocarb'
p1686
S'33.88 g'
p1687
sS'chln'
p1688
S'47.43 mg'
p1689
sS'vit b3'
p1690
S'1.16 mg'
p1691
sS'vit b2'
p1692
S'0.12 mg'
p1693
sS'vit b1'
p1694
S'0.34 mg'
p1695
sS'vit b6'
p1696
S'0.3 mg'
p1697
sS'fat'
p1698
S'12.64 g'
p1699
sS'water'
p1700
S'42.86 g'
p1701
sS'vit b12'
p1702
S'0.0 mcg'
p1703
sS'copp'
p1704
S'0.43 mg'
p1705
sS'panto'
p1706
S'0.77 mg'
p1707
sS'satcals'
p1708
S'15.51 kcal'
p1709
sS'magn'
p1710
S'64.09 mg'
p1711
sS'vit e-a-toco'
p1712
S'0.54 mg'
p1713
sS'satfat'
p1714
S'1.72 g'
p1715
sS'carb'
p1716
S'53.91 g'
p1717
sS'vit a-iu'
p1718
S'2929.05 iu'
p1719
sS'chrom'
p1720
S'0.08 mcg'
p1721
sS'vit b3-ne'
p1722
S'2.76 mg'
p1723
sS'retinol'
p1724
S'0.0 mcg'
p1725
sS'vit c'
p1726
S'13.78 mg'
p1727
sS'vit k'
p1728
S'121.61 mcg'
p1729
sS'fol_dfe'
p1730
S'266.98 mcg dfe'
p1731
sS'fluor'
p1732
S'0.01 mg'
p1733
sS'phos'
p1734
S'178.23 mg'
p1735
sS'sodium'
p1736
S'766.92 mg'
p1737
sS'chol'
p1738
S'0.0 mg'
p1739
sS'monofat'
p1740
S'5.2 g'
p1741
sS'iron'
p1742
S'4.9 mg'
p1743
sS'mang'
p1744
S'10.07 mg'
p1745
sS'calc'
p1746
S'153.93 mg'
p1747
sS'omega6'
p1748
S'2.76 g'
p1749
sS'omega3'
p1750
S'0.08 g'
p1751
sS'quantity'
p1752
S'1.0 '
p1753
ssg127
g128
sg129
(dp1754
S'onion, yellow, fresh, chopped'
p1755
S'28.96'
p1756
sS'cayenne chili pepper, dried, ground'
p1757
S'0.51'
p1758
sS'garlic, minced'
p1759
S'4.96'
p1760
sS'potato, yukon gold, fresh, diced'
p1761
S'70.17'
p1762
sS'broth, vegetable, low sodium'
p1763
S'215.21'
p1764
sS'cumin seeds, ground'
p1765
S'0.53'
p1766
sS'raw'
p1767
S'12.87'
p1768
sS'chickpeas, dry'
p1769
S'45.66'
p1770
sS'coriander seed, ground'
p1771
S'0.47'
p1772
sS'water, tap'
p1773
S'9.78'
p1774
sS'tahini'
p1775
S'6.64'
p1776
sS'sea salt'
p1777
S'1.53'
p1778
sS'spinach, baby, fresh'
p1779
S'24.2'
p1780
sS'black pepper, ground'
p1781
S'0.51'
p1782
ssg151
g152
sg153
g152
sg154
I0
sg155
S'roasted chickpea & tahini soup'
p1783
sbasS'tomato & cannellini bean soup'
p1784
(lp1785
(imodel
Meal
p1786
(dp1787
g5
(dp1788
S'moly'
p1789
S'3.48 mcg'
p1790
sS'prot'
p1791
S'17.11 g'
p1792
sS'iodine'
p1793
S'0.84 mcg'
p1794
sS'insoluble fiber'
p1795
S'15.98 g'
p1796
sS'vit d-iu'
p1797
S'0.0 iu'
p1798
sS'alc'
p1799
S'0.0 g'
p1800
sS'sel'
p1801
S'8.76 mcg'
p1802
sS'zinc'
p1803
S'2.06 mg'
p1804
sS'caff'
p1805
S'0.0 mg'
p1806
sS'folate'
p1807
S'303.93 mcg'
p1808
sS'transfat'
p1809
S'0.0 g'
p1810
sS'wgt'
p1811
S'473.81 g'
p1812
sS'polyfat'
p1813
S'0.59 g'
p1814
sS'cals'
p1815
S'317.67 kcal'
p1816
sS'totsolfib'
p1817
S'4.95 g'
p1818
sS'sugar'
p1819
S'9.33 g'
p1820
sS'disacc'
p1821
S'1.46 g'
p1822
sS'vit a-rae'
p1823
S'317.66 mcg'
p1824
sS'monsac'
p1825
S'3.59 g'
p1826
sS'vit d-mcg'
p1827
S'0.0 mcg'
p1828
sS'fatcals'
p1829
S'25.09 kcal'
p1830
sS'biot'
p1831
S'3.56 mcg'
p1832
sS'caroten'
p1833
S'635.32 mcg'
p1834
sS'totfib'
p1835
S'20.93 g'
p1836
sS'betacaro'
p1837
S'2422.5 mcg'
p1838
sS'potassium'
p1839
S'1447.86 mg'
p1840
sS'ocarb'
p1841
S'3.37 g'
p1842
sS'chln'
p1843
S'10.39 mg'
p1844
sS'vit b3'
p1845
S'1.7 mg'
p1846
sS'vit b2'
p1847
S'0.2 mg'
p1848
sS'vit b1'
p1849
S'0.53 mg'
p1850
sS'vit b6'
p1851
S'0.42 mg'
p1852
sS'fat'
p1853
S'2.82 g'
p1854
sS'water'
p1855
S'121.8 g'
p1856
sS'vit b12'
p1857
S'0.0 mcg'
p1858
sS'copp'
p1859
S'0.5 mg'
p1860
sS'panto'
p1861
S'0.76 mg'
p1862
sS'satcals'
p1863
S'4.16 kcal'
p1864
sS'magn'
p1865
S'147.75 mg'
p1866
sS'vit e-a-toco'
p1867
S'1.17 mg'
p1868
sS'satfat'
p1869
S'0.46 g'
p1870
sS'carb'
p1871
S'57.61 g'
p1872
sS'vit a-iu'
p1873
S'6353.2 iu'
p1874
sS'chrom'
p1875
S'0.13 mcg'
p1876
sS'vit b3-ne'
p1877
S'4.58 mg'
p1878
sS'retinol'
p1879
S'0.0 mcg'
p1880
sS'vit c'
p1881
S'17.93 mg'
p1882
sS'vit k'
p1883
S'103.65 mcg'
p1884
sS'fol_dfe'
p1885
S'265.81 mcg dfe'
p1886
sS'fluor'
p1887
S'0.02 mg'
p1888
sS'phos'
p1889
S'321.46 mg'
p1890
sS'sodium'
p1891
S'769.37 mg'
p1892
sS'chol'
p1893
S'0.0 mg'
p1894
sS'monofat'
p1895
S'1.23 g'
p1896
sS'iron'
p1897
S'6.99 mg'
p1898
sS'mang'
p1899
S'1.21 mg'
p1900
sS'calc'
p1901
S'161.01 mg'
p1902
sS'omega6'
p1903
S'0.43 g'
p1904
sS'omega3'
p1905
S'0.17 g'
p1906
sS'quantity'
p1907
S'1.0 '
p1908
ssg127
g128
sg129
(dp1909
S'carrots, fresh, chopped'
p1910
S'27.54'
p1911
sS'tomato sauce, canned'
p1912
S'52.5'
p1913
sg137
S'1.54'
p1914
sS'tomatoes, crushed, canned'
p1915
S'48.6'
p1916
sS'bay leaf, dried'
p1917
S'0.07'
p1918
sS'black pepper, ground'
p1919
S'0.15'
p1920
sS'garlic, minced'
p1921
S'1.62'
p1922
sS'onion, white, fresh, chopped'
p1923
S'42.12'
p1924
sS'euphebe organic vegetable stock'
p1925
S'210.44'
p1926
sS'cumin seeds, ground'
p1927
S'0.25'
p1928
sS'lemon juice, fresh'
p1929
S'3.49'
p1930
sS'beans, small white, dry'
p1931
S'63.99'
p1932
sS'sea salt'
p1933
S'0.99'
p1934
sS'sage, fresh'
p1935
S'0.25'
p1936
sS'spinach, baby, fresh'
p1937
S'20.25'
p1938
ssg151
g152
sg153
g152
sg154
I0
sg155
S'tomato & cannellini bean soup'
p1939
sbas.