(lp0
(i__main__
Meal
p1
(dp2
S'nutrition'
p3
(dp4
S'Alc (g)'
p5
F0.48
sS'Calc (mg)'
p6
F110.23
sS'Phos (mg)'
p7
F141.46
sS'Fluor (mg)'
p8
F0.02
sS'Vit B6 (mg)'
p9
F0.88
sS'Cals (kcal)'
p10
F483.02
sS'Vit C (mg)'
p11
F86.58
sS'Vit B1 (mg)'
p12
F0.91
sS'Sugar (g)'
p13
F10.1
sS'Copp (mg)'
p14
F0.18
sS'Vit B2 (mg)'
p15
F0.79
sS'Zinc (mg)'
p16
F1.03
sS'Caff (mg)'
p17
F0.0
sS'FatCals (kcal)'
p18
F140.6
sS'Vit A-RAE (mcg)'
p19
F570.57
sS'Omega6 (g)'
p20
F0.43
sS'Omega3 (g)'
p21
F0.11
sS'Sod (mg)'
p22
F766.0
sS'Vit B12 (mcg)'
p23
F1.1
sS'Chln (mg)'
p24
F29.43
sS'Vit D-IU (IU)'
p25
F5.1
sS'Disacc (g)'
p26
F0.61
sS'Vit D-mcg (mcg)'
p27
F0.11
sS'TransFat (g)'
p28
F0.0
sS'BetaCaro (mcg)'
p29
F4241.85
sS'SatFat (g)'
p30
F2.48
sS'Retinol (mcg)'
p31
F0.0
sS'Fat (g)'
p32
F15.68
sS'SatCals (kcal)'
p33
F22.36
sS'Chol (mg)'
p34
F0.0
sS'OCarb (g)'
p35
F45.98
sS'Panto (mg)'
p36
F1.46
sS'MonoFat (g)'
p37
F9.11
sS'Vit E-a-Toco (mg)'
p38
F1.81
sS'TotSolFib (g)'
p39
F0.66
sS'Vit K (mcg)'
p40
F14.11
sS'Caroten (mcg)'
p41
F1141.15
sS'Chrom (mcg)'
p42
F0.09
sS'Biot (mcg)'
p43
F1.86
sS'Folate (mcg)'
p44
F95.14
sS'Moly (mcg)'
p45
F10.07
sS'PolyFat (g)'
p46
F2.4
sS'Quantity'
p47
F1.0
sS'Mang (mg)'
p48
F0.64
sS'Vit B3-NE (mg)'
p49
F6.42
sS'Wgt (g)'
p50
F435.8
sS'Water (g)'
p51
F226.28
sS'Vit B3 (mg)'
p52
F5.66
sS'MonSac (g)'
p53
F3.4
sS'Iodine (mcg)'
p54
F0.0
sS'Carb (g)'
p55
F67.21
sS'Sel (mcg)'
p56
F4.6
sS'TotFib (g)'
p57
F11.14
sS'Magn (mg)'
p58
F59.38
sS'Iron (mg)'
p59
F4.02
sS'Vit A-IU (IU)'
p60
F11411.49
sS'Prot (g)'
p61
F21.1
sS'Pot (mg)'
p62
F1106.46
sS'Fol_DFE (mcg DFE)'
p63
F95.14
ssS'supplierID'
p64
S''
p65
sS'ingredients'
p66
(lp67
S'shallots, fresh, chopped'
p68
aS'garlic cloves, fresh'
p69
aS'oil, olive'
p70
aS'wine, cooking, white'
p71
aS'stock, vegetable, organic'
p72
aS'cauliflower florets, fresh'
p73
aS'squash, butternut, fresh, cubes'
p74
aS'carrots, fresh, chopped'
p75
aS'broccoli florets, fresh'
p76
aS'mushrooms, shiitake, fresh'
p77
aS'nutritional yeast'
p78
aS'mustard, dijon'
p79
aS'pasta, penne, lentil, dry, 10847, food service'
p80
aS'turmeric, ground'
p81
aS'garlic powder'
p82
aS'onion powder'
p83
aS'black pepper, ground'
p84
aS'cashews, raw, whole'
p85
aS'water, tap'
p86
aS'bread, sprouted seven grain'
p87
aS'seaweed, nori, fresh'
p88
aS'chili peppers, red, crushed flakes'
p89
aS'sea salt'
p90
asS'price'
p91
I0
sS'type'
p92
g65
sS'name'
p93
S"Magic Mac 'Un' Cheese"
p94
sba(i__main__
Meal
p95
(dp96
g3
(dp97
g5
F0.0
sg6
F165.7
sg7
F470.79999999999995
sg8
F0.02
sg9
F0.65
sg10
F565.0600000000001
sg11
F39.79
sg12
F0.47
sg13
F5.0
sg14
F0.81
sg15
F0.45
sg16
F2.6399999999999997
sg17
F0.0
sg18
F215.51
sg19
F124.22000000000001
sg20
F4.890000000000001
sg21
F0.34
sg22
F766.5699999999999
sg23
F0.07
sg24
F34.24
sg25
F0.0
sg26
F1.15
sg27
F0.0
sg28
F0.0
sg29
F1295.99
sg30
F4.32
sg31
F0.0
sg32
F24.1
sg33
F38.910000000000004
sg34
F0.0
sg35
F45.93
sg36
F1.2100000000000002
sg37
F11.96
sg38
F2.97
sg39
F0.18
sg40
F132.09
sg41
F248.44000000000003
sg42
F0.32999999999999996
sg43
F1.29
sg44
F126.67999999999999
sg45
F1.59
sg46
F5.87
sg47
F3.0
sg48
F2.8899999999999997
sg49
F11.1
sg50
F299.84000000000003
sg51
F135.27
sg52
F6.64
sg53
F1.21
sg54
F0.18
sg55
F65.08
sg56
F12.31
sg57
F7.88
sg58
F175.14999999999998
sg59
F6.01
sg60
F2484.39
sg61
F27.82
sg62
F898.4399999999999
sg63
F126.67999999999999
ssg64
g65
sg66
(lp98
S'tempeh'
p99
aS'pinto beans'
p100
aS'Gluten free tamari'
p101
aS'red onion'
p102
aS'red bell pepper'
p103
aS'poblano peppers'
p104
aS'yellow corn'
p105
aS'swiss chard'
p106
aS'water'
p107
aS'olive oil'
p108
aS'chili pepper powder'
p109
aS'cumin'
p110
aS'paprika'
p111
aS'garlic powder'
p112
aS'oregano'
p113
aS'cayenne chili pepper'
p114
aS'black pepper'
p115
aS'sea salt'
p116
aS'brown rice'
p117
aS'cilantro'
p118
aS'lime juice'
p119
aS'avocado'
p120
aS'cashews'
p121
asg91
I0
sg92
g65
sg93
S'Burrito Bowl with Cilantro Lime Rice & Avocado Crema (GF)'
p122
sba(i__main__
Meal
p123
(dp124
g3
(dp125
g5
F0.0
sg6
F283.32
sg7
F303.14
sg8
F0.0
sg9
F0.48
sg10
F421.66
sg11
F61.66
sg12
F0.42
sg13
F11.89
sg14
F0.9
sg15
F0.2
sg16
F3.31
sg17
F0.0
sg18
F65.81
sg19
F181.35
sg20
F1.01
sg21
F0.21
sg22
F765.2
sg23
F0.0
sg24
F65.74
sg25
F0.0
sg26
F0.41
sg27
F0.0
sg28
F0.0
sg29
F427.64
sg30
F0.98
sg31
F0.0
sg32
F7.39
sg33
F8.78
sg34
F0.0
sg35
F37.2
sg36
F0.89
sg37
F3.36
sg38
F1.81
sg39
F3.43
sg40
F211.55
sg41
F362.7
sg42
F0.15
sg43
F1.21
sg44
F401.27
sg45
F9.41
sg46
F1.22
sg47
F1.0
sg48
F2.2
sg49
F6.12
sg50
F481.8
sg51
F167.72
sg52
F2.31
sg53
F1.92
sg54
F0.69
sg55
F68.34
sg56
F10.98
sg57
F19.19
sg58
F208.76
sg59
F11.54
sg60
F3626.99
sg61
F22.72
sg62
F1854.79
sg63
F331.45
ssg64
g65
sg66
(lp126
S'white beans'
p127
aS'garlic'
p128
aS'white onion'
p129
aS'poblano peppers'
p130
aS'zucchini'
p131
aS'cumin'
p132
aS'coriander'
p133
aS'lime juice'
p134
aS'spinach'
p135
aS'cayenne chili pepper'
p136
aS'oregano'
p137
aS'cilantro'
p138
aS'Organic vegetable stock'
p139
aS'tomatillos'
p140
aS'shallots'
p141
aS'jalapeno peppers'
p142
aS'olive oil'
p143
aS'black pepper'
p144
aS'sea salt'
p145
asg91
I0
sg92
g65
sg93
S'Green Tomatillo Chili'
p146
sba(i__main__
Meal
p147
(dp148
g3
(dp149
g5
F0.0
sg6
F103.49
sg7
F128.49
sg8
F0.13
sg9
F0.27
sg10
F344.85
sg11
F37.519999999999996
sg12
F0.26
sg13
F6.300000000000001
sg14
F0.24
sg15
F0.07
sg16
F0.8500000000000001
sg17
F0.0
sg18
F92.14
sg19
F331.84
sg20
F3.27
sg21
F0.42000000000000004
sg22
F765.9799999999999
sg23
F0.0
sg24
F25.38
sg25
F0.0
sg26
F0.48
sg27
F0.0
sg28
F0.0
sg29
F2180.92
sg30
F2.73
sg31
F0.0
sg32
F10.24
sg33
F24.529999999999998
sg34
F0.0
sg35
F28.06
sg36
F0.58
sg37
F1.66
sg38
F2.38
sg39
F0.41000000000000003
sg40
F100.32000000000001
sg41
F663.68
sg42
F0.08
sg43
F1.67
sg44
F89.65
sg45
F5.72
sg46
F1.99
sg47
F2.0
sg48
F0.98
sg49
F2.7
sg50
F457.76
sg51
F288.87
sg52
F1.45
sg53
F2.69
sg54
F0.6
sg55
F47.11
sg56
F3.53
sg57
F12.34
sg58
F86.0
sg59
F5.53
sg60
F6636.780000000001
sg61
F19.43
sg62
F830.01
sg63
F53.19
ssg64
g65
sg66
(lp150
S'butternut squash'
p151
aS'cauliflower'
p152
aS'white onion'
p153
aS'garlic '
p154
aS'ginger root'
p155
aS'red lentils'
p156
aS'tomatoes'
p157
aS'water'
p158
aS'spinach'
p159
aS'black pepper'
p160
aS'lemon juice'
p161
aS'coconut oil'
p162
aS'saffron powder'
p163
aS'turmeric'
p164
aS'coriander'
p165
aS'cumin'
p166
aS'paprika'
p167
aS'Sea Salt'
p168
aS'hemp seeds'
p169
aS'pumpkin seeds'
p170
aS'sunflower seeds'
p171
asg91
I0
sg92
g65
sg93
S'Butternut Squash Red Lentil Dal with Brown Rice and Three Seed Topping'
p172
sba(i__main__
Meal
p173
(dp174
g3
(dp175
g5
F0.0
sg6
F177.16
sg7
F312.88
sg8
F0.01
sg9
F0.51
sg10
F463.16
sg11
F91.16
sg12
F0.29
sg13
F16.4
sg14
F1.0
sg15
F0.74
sg16
F2.74
sg17
F0.0
sg18
F122.83
sg19
F81.14
sg20
F3.05
sg21
F0.23
sg22
F763.0
sg23
F0.13
sg24
F24.65
sg25
F2.46
sg26
F0.03
sg27
F0.08
sg28
F0.0
sg29
F863.69
sg30
F2.54
sg31
F0.0
sg32
F13.7
sg33
F22.87
sg34
F0.0
sg35
F5.97
sg36
F1.89
sg37
F5.96
sg38
F1.91
sg39
F0.1
sg40
F31.44
sg41
F157.45
sg42
F0.17
sg43
F0.0
sg44
F67.54
sg45
F5.73
sg46
F3.98
sg47
F1.0
sg48
F2.51
sg49
F10.49
sg50
F502.95
sg51
F212.23
sg52
F5.74
sg53
F5.75
sg54
F0.22
sg55
F64.87
sg56
F40.63
sg57
F10.5
sg58
F144.15
sg59
F5.88
sg60
F1574.46
sg61
F26.81
sg62
F1456.91
sg63
F78.4
ssg64
g65
sg66
(lp176
S'tempeh'
p177
aS'thyme, dried, leaves'
p178
aS'oregano, dried, leaves'
p179
aS'paprika'
p180
aS'garlic, minced'
p181
aS'black pepper, ground'
p182
aS'vinegar, balsamic'
p183
aS'soy sauce, tamari'
p184
aS'tomato sauce, canned, unsalted'
p185
aS'mushrooms, crimini, fresh'
p186
aS'onion, red, fresh'
p187
aS'bell pepper, red, fresh, chopped'
p188
aS'bell pepper, yellow, fresh, large, 3 3/4"'
p189
aS'basil, dried, ground'
p190
aS'oil, olive'
p191
aS'lemon juice, fresh'
p192
aS'zucchini, fresh, with skin'
p193
aS'Alvarado Street Bakery Sprouted Whole Wheat Tortilla'
p194
aS'sea salt'
p195
asg91
I0
sg92
g65
sg93
S'Pizza Pocket'
p196
sba(i__main__
Meal
p197
(dp198
g3
(dp199
g5
F0.0
sg6
F168.93
sg7
F191.34
sg8
F0.0
sg9
F0.59
sg10
F382.27
sg11
F108.19
sg12
F0.34
sg13
F11.0
sg14
F0.5
sg15
F0.25
sg16
F1.87
sg17
F0.0
sg18
F88.32
sg19
F168.31
sg20
F1.18
sg21
F0.12
sg22
F763.9
sg23
F0.0
sg24
F76.9
sg25
F0.0
sg26
F0.14
sg27
F0.0
sg28
F0.0
sg29
F623.02
sg30
F1.85
sg31
F0.0
sg32
F9.81
sg33
F16.66
sg34
F0.0
sg35
F33.37
sg36
F1.37
sg37
F0.63
sg38
F1.9
sg39
F2.19
sg40
F243.34
sg41
F336.62
sg42
F0.16
sg43
F0.76
sg44
F366.1
sg45
F10.04
sg46
F1.3
sg47
F1.0
sg48
F9.51
sg49
F4.53
sg50
F441.43
sg51
F214.42
sg52
F2.53
sg53
F5.27
sg54
F0.04
sg55
F59.29
sg56
F1.21
sg57
F13.35
sg58
F99.27
sg59
F6.24
sg60
F3366.24
sg61
F17.59
sg62
F897.5
sg63
F302.57
ssg64
g65
sg66
(lp200
S'wheat, farro, dry'
p201
aS'chickpeas, dry'
p202
aS'broccoli rabe stalk, fresh'
p203
aS'zucchini, fresh, with skin'
p204
aS'cauliflower florets, fresh'
p205
aS'bell pepper, yellow, fresh, large, 3 3/4"'
p206
aS'garlic, minced'
p207
aS'onion, yellow, fresh, chopped'
p208
aS'tomatoes, crushed, canned'
p209
aS'broth, vegetable, organic'
p210
aS'oregano, dried, leaves'
p211
aS'spinach, baby, fresh'
p212
aS'pine nuts'
p213
aS'black pepper, ground'
p214
aS'lemon juice, fresh'
p215
aS'sea salt'
p216
asg91
I0
sg92
g65
sg93
S'Tuscan Farro Salad'
p217
sba(i__main__
Meal
p218
(dp219
g3
(dp220
sg64
g65
sg66
(lp221
S'Green bell pepper'
p222
aS'Red bell pepper'
p223
aS'black pepper'
p224
aS'Organic vegetable stock'
p225
aS'cayenne chili pepper'
p226
aS'celery'
p227
aS'chili pepper powder'
p228
aS'cumin'
p229
aS'garlic'
p230
aS'garlic powder'
p231
aS'jalapeno peppers'
p232
aS'olive oil'
p233
aS'white onion'
p234
aS'oregano'
p235
aS'paprika'
p236
aS'brown rice'
p237
aS'gluten free tamari'
p238
aS'squash'
p239
aS'tempeh'
p240
aS'thyme'
p241
aS'cherry tomatoes'
p242
aS'vegan worcestershire sauce'
p243
aS'zucchini'
p244
aS'sea salt'
p245
aS'TOTAL'
p246
asg91
I0
sg92
g65
sg93
S'Louisiana Jambalaya'
p247
sba(i__main__
Meal
p248
(dp249
g3
(dp250
g5
F0.0
sg6
F197.39
sg7
F138.55
sg8
F0.01
sg9
F1.11
sg10
F436.99
sg11
F105.44
sg12
F1.67
sg13
F11.59
sg14
F0.19
sg15
F1.45
sg16
F1.15
sg17
F0.0
sg18
F78.16
sg19
F336.24
sg20
F0.25
sg21
F0.17
sg22
F766.5
sg23
F2.25
sg24
F14.36
sg25
F0.0
sg26
F0.3
sg27
F0.0
sg28
F0.0
sg29
F245.06
sg30
F1.34
sg31
F0.0
sg32
F8.68
sg33
F12.06
sg34
F0.0
sg35
F39.52
sg36
F0.65
sg37
F4.62
sg38
F0.54
sg39
F0.79
sg40
F283.15
sg41
F672.49
sg42
F0.05
sg43
F2.63
sg44
F207.55
sg45
F17.68
sg46
F1.33
sg47
F1.0
sg48
F1.08
sg49
F7.77
sg50
F506.05
sg51
F337.56
sg52
F6.94
sg53
F3.28
sg54
F0.5
sg55
F66.01
sg56
F3.16
sg57
F12.23
sg58
F96.88
sg59
F5.95
sg60
F6724.9
sg61
F24.02
sg62
F1270.23
sg63
F100.82
ssg64
g65
sg66
(lp251
S'pasta, penne, lentil, dry, 10847, food service'
p252
aS'olives, black, canned'
p253
aS'tomatoes, crushed'
p254
aS'nutritional yeast'
p255
aS'basil, dried, ground'
p256
aS'oregano, fresh'
p257
aS'onion, white, fresh, chopped'
p258
aS'garlic, minced'
p259
aS'black pepper, ground'
p260
aS'chili peppers, red, crushed flakes'
p261
aS'beans, small white, dry'
p262
aS'spinach, baby, fresh'
p263
aS'zucchini, fresh, with skin'
p264
aS'broccoli florets, fresh'
p265
aS'cashews, raw, whole'
p266
aS'water, tap'
p267
aS'sea salt'
p268
asg91
I0
sg92
g65
sg93
S'Pasta Al Forno (GF)'
p269
sba(i__main__
Meal
p270
(dp271
g3
(dp272
g5
F3.33
sg6
F42.72
sg7
F143.52
sg8
F0.07
sg9
F0.5
sg10
F486.67
sg11
F8.03
sg12
F0.67
sg13
F7.94
sg14
F0.35
sg15
F0.78
sg16
F1.25
sg17
F0.0
sg18
F106.85
sg19
F11.06
sg20
F0.72
sg21
F0.07
sg22
F767.5
sg23
F0.83
sg24
F21.34
sg25
F201.05
sg26
F0.51
sg27
F5.03
sg28
F0.0
sg29
F113.67
sg30
F1.27
sg31
F0.0
sg32
F11.99
sg33
F11.39
sg34
F0.0
sg35
F62.01
sg36
F1.2
sg37
F5.94
sg38
F1.0
sg39
F0.4
sg40
F34.68
sg41
F22.11
sg42
F0.0
sg43
F2.19
sg44
F51.33
sg45
F2.24
sg46
F1.09
sg47
F1.0
sg48
F0.32
sg49
F6.92
sg50
F561.17
sg51
F161.8
sg52
F6.02
sg53
F2.4
sg54
F0.89
sg55
F83.09
sg56
F13.86
sg57
F10.98
sg58
F31.57
sg59
F3.31
sg60
F221.12
sg61
F12.05
sg62
F520.99
sg63
F51.33
ssg64
g65
sg66
(lp273
S'Organic vegetable stock'
p274
aS'white cooking wine'
p275
aS'olive oil'
p276
aS'yellow onion'
p277
aS'garlic'
p278
aS'celery'
p279
aS'brown rice'
p280
aS'maitake mushrooms'
p281
aS'porcini mushrooms'
p282
aS'shittake mushrooms'
p283
aS'crimini mushrooms'
p284
aS'thyme'
p285
aS'parsley'
p286
aS'lemon juice'
p287
aS'nutritional yeast'
p288
aS'white beans'
p289
aS'cashews'
p290
aS'water'
p291
aS'sea salt'
p292
asg91
I0
sg92
g65
sg93
S'Wild Mushroom Risotto (GF)'
p293
sba(i__main__
Meal
p294
(dp295
g3
(dp296
g5
F0.0
sg6
F158.56
sg7
F341.21
sg8
F0.0
sg9
F0.51
sg10
F338.13
sg11
F20.87
sg12
F0.48
sg13
F10.78
sg14
F0.92
sg15
F0.42
sg16
F2.38
sg17
F0.0
sg18
F70.91
sg19
F220.74
sg20
F1.78
sg21
F0.24
sg22
F766.2
sg23
F0.05
sg24
F43.45
sg25
F0.77
sg26
F1.31
sg27
F0.03
sg28
F0.0
sg29
F1991.56
sg30
F1.41
sg31
F0.0
sg32
F7.94
sg33
F12.69
sg34
F0.0
sg35
F22.78
sg36
F1.26
sg37
F3.6
sg38
F2.07
sg39
F0.58
sg40
F50.43
sg41
F441.48
sg42
F0.09
sg43
F0.68
sg44
F259.52
sg45
F4.71
sg46
F2.02
sg47
F1.0
sg48
F1.29
sg49
F7.58
sg50
F346.92
sg51
F198.47
sg52
F4.13
sg53
F5.82
sg54
F0.35
sg55
F50.84
sg56
F12.48
sg57
F12.59
sg58
F133.93
sg59
F5.69
sg60
F4414.79
sg61
F19.54
sg62
F1345.12
sg63
F246.35
ssg64
g65
sg66
(lp297
S'kidney beans, all types, dry'
p298
aS'black beans, dry'
p299
aS'pinto beans, dry'
p300
aS'tomatoes, crushed, canned'
p301
aS'zucchini, fresh, with skin'
p302
aS'onion, yellow, fresh, chopped'
p303
aS'garlic, minced'
p304
aS'tempeh'
p305
aS'cinnamon, ground'
p306
aS'chili powder, Eagle, food service'
p307
aS'cocoa powder, natural'
p308
aS'cumin seeds, ground'
p309
aS'oregano, dried, leaves'
p310
aS'coriander seed, ground'
p311
aS'juice, lime, fresh'
p312
aS'spinach, baby, fresh'
p313
aS'mushrooms, crimini, fresh'
p314
aS'stock, vegetable, organic'
p315
aS'oil, olive'
p316
aS'bell pepper'
p317
aS'carrots, fresh, chopped'
p318
aS'black pepper, ground'
p319
aS'sea salt'
p320
asg91
I0
sg92
g65
sg93
S'Lunchtime Chili (GF)'
p321
sba(i__main__
Meal
p322
(dp323
g3
(dp324
g5
F0.0
sg6
F82.04
sg7
F178.03
sg8
F0.0
sg9
F0.3
sg10
F231.14
sg11
F11.23
sg12
F0.29
sg13
F5.68
sg14
F0.31
sg15
F0.12
sg16
F1.15
sg17
F0.0
sg18
F48.37
sg19
F23.62
sg20
F0.53
sg21
F0.12
sg22
F263.4
sg23
F0.0
sg24
F11.29
sg25
F0.0
sg26
F0.49
sg27
F0.0
sg28
F0.0
sg29
F272.48
sg30
F0.65
sg31
F0.0
sg32
F5.44
sg33
F5.83
sg34
F0.0
sg35
F8.59
sg36
F0.6
sg37
F2.62
sg38
F0.97
sg39
F2.18
sg40
F64.6
sg41
F47.24
sg42
F0.0
sg43
F1.74
sg44
F155.75
sg45
F7.99
sg46
F0.65
sg47
F1.0
sg48
F0.72
sg49
F2.82
sg50
F211.2
sg51
F154.59
sg52
F1.25
sg53
F1.63
sg54
F0.99
sg55
F38.03
sg56
F4.47
sg57
F12.51
sg58
F77.88
sg59
F3.25
sg60
F472.45
sg61
F9.34
sg62
F816.5
sg63
F155.75
ssg64
g65
sg66
(lp325
S'eggplant, fresh, cubes'
p326
aS'onion, white, fresh, chopped'
p327
aS'garlic, minced'
p328
aS'chili peppers, red, crushed flakes'
p329
aS'beans, small white, dry'
p330
aS'parsley, fresh, sprigs'
p331
aS'flax seeds, brown, ground'
p332
aS'rice, brown, puffed'
p333
aS'black pepper, ground'
p334
aS'lemon juice, fresh'
p335
aS'oil, olive'
p336
aS'sea salt'
p337
asg91
I0
sg92
g65
sg93
S"Rachel's Veggie Burger with Roasted Sweet potato and parsnip fries (GF)"
p338
sba(i__main__
Meal
p339
(dp340
g3
(dp341
g5
F0.0
sg6
F334.75
sg7
F239.62
sg8
F0.08
sg9
F0.36
sg10
F551.98
sg11
F58.589999999999996
sg12
F0.32999999999999996
sg13
F6.09
sg14
F0.35
sg15
F0.060000000000000005
sg16
F1.64
sg17
F0.0
sg18
F203.65
sg19
F557.97
sg20
F0.97
sg21
F0.05
sg22
F762.9399999999999
sg23
F0.0
sg24
F20.869999999999997
sg25
F0.0
sg26
F0.4
sg27
F0.0
sg28
F0.0
sg29
F101.32
sg30
F11.85
sg31
F0.0
sg32
F22.68
sg33
F106.67
sg34
F0.0
sg35
F47.160000000000004
sg36
F0.73
sg37
F4.66
sg38
F0.8200000000000001
sg39
F0.2
sg40
F813.51
sg41
F1115.6
sg42
F0.22
sg43
F0.58
sg44
F340.28999999999996
sg45
F0.0
sg46
F4.53
sg47
F2.0
sg48
F3.9299999999999997
sg49
F5.29
sg50
F609.99
sg51
F256.26
sg52
F4.1
sg53
F0.01
sg54
F0.0
sg55
F66.17
sg56
F10.32
sg57
F10.9
sg58
F217.57
sg59
F12.41
sg60
F11155.97
sg61
F23.53
sg62
F344.22
sg63
F22.240000000000002
ssg64
g65
sg66
(lp342
S'turmeric, ground'
p343
aS'cayenne chili pepper, dried, ground'
p344
aS'spinach, baby, fresh'
p345
aS'garlic cloves, fresh'
p346
aS'ginger root, fresh'
p347
aS'serrano peppers, fresh'
p348
aS'spice blend, garam masala'
p349
aS'coriander, ground leaves'
p350
aS'cumin seeds, ground'
p351
aS'coconut milk, canned'
p352
aS'tofu, extra firm, Nasoya'
p353
aS'oil, olive'
p354
aS'onion, yellow, fresh'
p355
aS'sea salt'
p356
aS'cardamom, ground'
p357
aS'rice, brown, dry, long grain'
p358
aS'water, tap'
p359
asg91
I0
sg92
g65
sg93
S'Saag no Paneer with Cardamom Rice (GF)'
p360
sba(i__main__
Meal
p361
(dp362
g3
(dp363
g5
F0.0
sg6
F65.65
sg7
F13.07
sg8
F0.0
sg9
F0.04
sg10
F294.42
sg11
F7.17
sg12
F0.22
sg13
F6.38
sg14
F0.03
sg15
F0.05
sg16
F0.1
sg17
F0.0
sg18
F27.09
sg19
F175.71
sg20
F0.01
sg21
F0.0
sg22
F766.8
sg23
F0.0
sg24
F2.09
sg25
F0.0
sg26
F1.06
sg27
F0.0
sg28
F0.0
sg29
F255.56
sg30
F0.26
sg31
F0.0
sg32
F3.07
sg33
F2.36
sg34
F0.0
sg35
F31.03
sg36
F0.16
sg37
F0.97
sg38
F0.01
sg39
F0.0
sg40
F1.63
sg41
F351.43
sg42
F0.0
sg43
F0.76
sg44
F4.54
sg45
F1.08
sg46
F0.2
sg47
F1.0
sg48
F0.04
sg49
F0.32
sg50
F370.87
sg51
F276.3
sg52
F0.27
sg53
F1.1
sg54
F0.43
sg55
F48.81
sg56
F0.11
sg57
F11.34
sg58
F4.5
sg59
F4.4
sg60
F3514.26
sg61
F19.27
sg62
F790.64
sg63
F4.54
ssg64
g65
sg66
(lp364
S'olive oil'
p365
aS'white onion'
p366
aS'Yukon Gold potatoes'
p367
aS'carrots'
p368
aS'garlic'
p369
aS'red lentils'
p370
aS'Organic vegetable stock'
p371
aS'lemon juice'
p372
aS'coriander'
p373
aS'cumin'
p374
aS'sea salt'
p375
asg91
I0
sg92
g65
sg93
S'Lemony Red Lentil Soup'
p376
sba(i__main__
Meal
p377
(dp378
g3
(dp379
g5
F0.0
sg6
F87.58
sg7
F141.59
sg8
F0.01
sg9
F1.28
sg10
F521.92
sg11
F89.13
sg12
F1.99
sg13
F5.98
sg14
F0.15
sg15
F1.61
sg16
F1.22
sg17
F0.0
sg18
F91.83
sg19
F128.29
sg20
F0.38
sg21
F0.1
sg22
F764.5
sg23
F2.63
sg24
F52.33
sg25
F0.0
sg26
F2.19
sg27
F0.0
sg28
F0.0
sg29
F557.86
sg30
F1.5
sg31
F0.0
sg32
F10.25
sg33
F13.54
sg34
F0.0
sg35
F10.49
sg36
F1.12
sg37
F5.37
sg38
F0.49
sg39
F0.9
sg40
F28.23
sg41
F256.57
sg42
F0.09
sg43
F3.49
sg44
F101.56
sg45
F8.39
sg46
F1.42
sg47
F2.0
sg48
F0.63
sg49
F9.32
sg50
F381.63
sg51
F166.42
sg52
F8.44
sg53
F1.83
sg54
F0.0
sg55
F75.75
sg56
F4.22
sg57
F17.28
sg58
F42.88
sg59
F7.0
sg60
F2565.72
sg61
F31.130000000000003
sg62
F554.56
sg63
F101.56
ssg64
g65
sg66
(lp380
S'Green Lentil Penne'
p381
aS'black pepper, ground'
p382
aS'broccoli florets, fresh'
p383
aS'broth, vegetable, low sodium'
p384
aS'cashews, raw, whole'
p385
aS'water, tap'
p386
aS'cauliflower florets, fresh'
p387
aS'garlic cloves, fresh'
p388
aS'garlic powder'
p389
aS'lemon juice, fresh'
p390
aS'nutritional yeast'
p391
aS'oil, olive'
p392
aS'onion powder'
p393
aS'peas, green, frozen'
p394
aS'sea salt'
p395
asg91
I0
sg92
g65
sg93
S'Cauliflower Alfredo with Green Lentil Penne (GF)'
p396
sba(i__main__
Meal
p397
(dp398
g3
(dp399
sg64
g65
sg66
(lp400
S'oil, olive'
p401
aS'garlic, minced'
p402
aS'mushrooms, crimini, fresh'
p403
aS'chili peppers, powder'
p404
aS'spinach, baby, fresh'
p405
aS'jalapeno peppers, fresh'
p406
aS'lemon juice, fresh'
p407
aS'cilantro, fresh, leaves'
p408
aS'black beans, dry'
p409
aS'miso'
p410
aS'nutritional yeast'
p411
aS'tortilla, 100% whole wheat, medium'
p412
aS'sea salt'
p413
aS'TOTAL'
p414
aS'cumin seeds, ground'
p415
aS'avocado, California, fresh'
p416
aS'sea salt, california'
p417
aS'juice, lime, fresh'
p418
aS'shallots, fresh, chopped'
p419
aS'tomatillos, crushed'
p420
asg91
I0
sg92
g65
sg93
S'Lunchtime Rita with Green Salsa'
p421
sba(i__main__
Meal
p422
(dp423
g3
(dp424
g5
F0.0
sg6
F265.13
sg7
F343.85
sg8
F0.01
sg9
F0.5700000000000001
sg10
F583.0
sg11
F81.02000000000001
sg12
F0.45
sg13
F7.260000000000001
sg14
F1.0
sg15
F0.19
sg16
F2.21
sg17
F0.0
sg18
F215.56
sg19
F499.93
sg20
F0.86
sg21
F0.12000000000000001
sg22
F767.64
sg23
F0.0
sg24
F28.8
sg25
F0.0
sg26
F1.3599999999999999
sg27
F0.0
sg28
F0.0
sg29
F4404.46
sg30
F16.05
sg31
F0.0
sg32
F23.95
sg33
F144.46
sg34
F0.0
sg35
F50.53
sg36
F1.23
sg37
F2.36
sg38
F1.17
sg39
F0.83
sg40
F284.67
sg41
F999.86
sg42
F0.24
sg43
F2.2
sg44
F110.5
sg45
F6.26
sg46
F3.6799999999999997
sg47
F2.0
sg48
F2.79
sg49
F7.32
sg50
F444.5
sg51
F298.66999999999996
sg52
F5.5
sg53
F1.66
sg54
F0.79
sg55
F74.61
sg56
F12.0
sg57
F8.82
sg58
F142.56
sg59
F6.38
sg60
F9998.59
sg61
F19.88
sg62
F845.3699999999999
sg63
F110.5
ssg64
g65
sg66
(lp425
S'oil, coconut'
p426
aS'onion, white, fresh, chopped'
p427
aS'ginger root, fresh, 1" sliced'
p428
aS'garlic, minced'
p429
aS'carrots, fresh'
p430
aS'peas, snow, fresh'
p431
aS'broccoli florets, fresh'
p432
aS'coconut milk, canned'
p433
aS'water, generic'
p434
aS'kale, fresh, chopped'
p435
aS'vinegar, brown rice, organic'
p436
aS'soy sauce, tamari'
p437
aS'tofu, super firm, Nasoya, cubed'
p438
aS'arrowroot flour'
p439
aS'cilantro, fresh, leaves'
p440
aS'curry paste, green'
p441
aS'sweet potatoes, fresh, cubes'
p442
aS'sea salt'
p443
aS'rice, brown, dry, long grain'
p444
aS'lemongrass, fresh, chopped'
p445
aS'water, tap'
p446
asg91
I0
sg92
g65
sg93
S'Thai Coconut Green Curry with Lemongrass Rice (GF)'
p447
sba(i__main__
Meal
p448
(dp449
g3
(dp450
g5
F0.0
sg6
F140.60000000000002
sg7
F221.28
sg8
F0.09
sg9
F1.83
sg10
F396.72
sg11
F72.41
sg12
F2.92
sg13
F10.83
sg14
F0.55
sg15
F2.3
sg16
F2.05
sg17
F0.0
sg18
F142.46
sg19
F411.02
sg20
F1.26
sg21
F0.07
sg22
F762.8
sg23
F3.9
sg24
F14.57
sg25
F0.0
sg26
F1.46
sg27
F0.0
sg28
F0.0
sg29
F4761.66
sg30
F1.6500000000000001
sg31
F0.0
sg32
F16.05
sg33
F14.879999999999999
sg34
F0.0
sg35
F25.37
sg36
F0.97
sg37
F4.27
sg38
F5.04
sg39
F0.07
sg40
F13.86
sg41
F822.05
sg42
F0.14
sg43
F4.12
sg44
F217.83
sg45
F10.440000000000001
sg46
F2.0
sg47
F2.0
sg48
F1.11
sg49
F12.530000000000001
sg50
F402.8
sg51
F292.26
sg52
F12.01
sg53
F3.13
sg54
F0.53
sg55
F49.31
sg56
F4.17
sg57
F11.59
sg58
F150.39000000000001
sg59
F4.32
sg60
F8220.48
sg61
F16.490000000000002
sg62
F867.24
sg63
F217.83
ssg64
g65
sg66
(lp451
S'yellow bell pepper'
p452
aS'red bell pepper'
p453
aS'olive oil '
p454
aS'eggplant'
p455
aS'black pepper'
p456
aS'sweet potatoes'
p457
aS'zucchini'
p458
aS'white onion'
p459
aS'bay leaf'
p460
aS'thyme'
p461
aS'cherry tomatoes'
p462
aS'chickpea flour'
p463
aS'water'
p464
aS'nutritional yeast'
p465
aS'baking powde'
p466
aS'turmeric'
p467
aS'almond flour'
p468
aS'sea salt'
p469
aS'bell pepper'
p470
aS'shallots'
p471
aS'garlic'
p472
aS'lime juice'
p473
aS'olive oil'
p474
asg91
I0
sg92
g65
sg93
S'Veggie Brunch Pie with Roasted Red Pepper Sauce (GF)'
p475
sba(i__main__
Meal
p476
(dp477
g3
(dp478
g5
F0.0
sg6
F0.0
sg7
F0.0
sg8
F0.0
sg9
F0.0
sg10
F80.0
sg11
F0.0
sg12
F0.0
sg13
F2.0
sg14
F0.0
sg15
F0.0
sg16
F0.0
sg17
F0.0
sg18
F9.0
sg19
F0.0
sg20
F0.0
sg21
F0.0
sg22
F10.0
sg23
F0.0
sg24
F0.0
sg25
F0.0
sg26
F0.0
sg27
F0.0
sg28
F0.0
sg29
F0.0
sg30
F0.0
sg31
F0.0
sg32
F1.0
sg33
F0.0
sg34
F0.0
sg35
F12.0
sg36
F0.0
sg37
F0.0
sg38
F0.0
sg39
F0.0
sg40
F0.0
sg41
F0.0
sg42
F0.0
sg43
F0.0
sg44
F0.0
sg45
F0.0
sg46
F0.0
sg47
F1.0
sg48
F0.0
sg49
F0.0
sg50
F37.0
sg51
F0.0
sg52
F0.0
sg53
F0.0
sg54
F0.0
sg55
F16.0
sg56
F0.0
sg57
F2.0
sg58
F0.0
sg59
F0.0
sg60
F0.0
sg61
F2.0
sg62
F0.0
sg63
F0.0
ssg64
g65
sg66
(lp479
S'tortilla, yellow corn, 6"'
p480
asg91
I0
sg92
g65
sg93
S'Chickpea and Maitake Tacos with Corn Tortillas (GF)'
p481
sba(i__main__
Meal
p482
(dp483
g3
(dp484
g5
F0.0
sg6
F122.5
sg7
F132.75
sg8
F0.01
sg9
F0.38
sg10
F323.85
sg11
F179.44
sg12
F0.14
sg13
F12.1
sg14
F0.1
sg15
F0.22
sg16
F0.81
sg17
F0.0
sg18
F175.85
sg19
F264.18
sg20
F0.07
sg21
F0.2
sg22
F762.7
sg23
F0.0
sg24
F37.15
sg25
F0.0
sg26
F0.0
sg27
F0.0
sg28
F0.0
sg29
F144.32
sg30
F3.17
sg31
F0.0
sg32
F19.97
sg33
F28.53
sg34
F0.0
sg35
F7.71
sg36
F1.34
sg37
F12.41
sg38
F0.07
sg39
F0.97
sg40
F13.56
sg41
F528.35
sg42
F0.06
sg43
F1.42
sg44
F150.36
sg45
F11.41
sg46
F3.25
sg47
F1.0
sg48
F0.51
sg49
F2.33
sg50
F601.72
sg51
F235.2
sg52
F1.35
sg53
F1.6
sg54
F0.0
sg55
F28.32
sg56
F4.85
sg57
F8.4
sg58
F49.46
sg59
F3.41
sg60
F5283.51
sg61
F12.12
sg62
F756.88
sg63
F150.36
ssg64
g65
sg66
(lp485
S'oil, olive, pure'
p486
aS'onion, yellow, fresh'
p487
aS'cauliflower florets, fresh'
p488
aS'broccoli florets, fresh'
p489
aS'carrots, fresh'
p490
aS'stock, vegetable, organic'
p491
aS'mustard, dijon'
p492
aS'paprika, ground'
p493
aS'cashews, raw, whole'
p494
aS'water, tap'
p495
aS'black pepper, ground'
p496
aS'sea salt'
p497
asg91
I0
sg92
g65
sg93
S'Creamy Broccoli Soup (GF)'
p498
sba(i__main__
Meal
p499
(dp500
g3
(dp501
g5
F2.31
sg6
F150.91
sg7
F457.22
sg8
F0.04
sg9
F0.49
sg10
F484.93
sg11
F55.48
sg12
F0.28
sg13
F7.07
sg14
F0.93
sg15
F0.63
sg16
F5.26
sg17
F0.0
sg18
F139.81
sg19
F380.1
sg20
F4.29
sg21
F0.6
sg22
F770.6
sg23
F0.08
sg24
F55.98
sg25
F2.51
sg26
F0.32
sg27
F0.08
sg28
F0.0
sg29
F3733.98
sg30
F1.7
sg31
F0.0
sg32
F15.67
sg33
F15.29
sg34
F0.0
sg35
F43.43
sg36
F2.12
sg37
F8.11
sg38
F1.8
sg39
F0.25
sg40
F48.68
sg41
F760.21
sg42
F0.0
sg43
F0.0
sg44
F118.33
sg45
F3.38
sg46
F4.96
sg47
F1.0
sg48
F1.84
sg49
F10.44
sg50
F310.16
sg51
F165.54
sg52
F7.3
sg53
F0.01
sg54
F0.0
sg55
F69.96
sg56
F25.35
sg57
F9.43
sg58
F159.38
sg59
F5.4
sg60
F7602.09
sg61
F17.03
sg62
F967.74
sg63
F118.33
ssg64
g65
sg66
(lp502
S'porcini mushrooms'
p503
aS'wild rice'
p504
aS'quinoa'
p505
aS'kale'
p506
aS'olive oil '
p507
aS'shallots'
p508
aS'garlic'
p509
aS'crimini mushrooms'
p510
aS'celery'
p511
aS'carrots'
p512
aS'white cooking wine'
p513
aS'thyme'
p514
aS'sage'
p515
aS'parsley'
p516
aS'pecans'
p517
aS'walnut oil'
p518
aS'sea salt'
p519
asg91
I0
sg92
g65
sg93
S'"Not-so-Stuffing" Quinoa Salad'
p520
sba(i__main__
Meal
p521
(dp522
g3
(dp523
g5
F0.0
sg6
F203.19
sg7
F213.95
sg8
F0.01
sg9
F0.58
sg10
F521.4399999999999
sg11
F106.04
sg12
F0.51
sg13
F9.549999999999999
sg14
F0.99
sg15
F0.35
sg16
F1.9100000000000001
sg17
F0.0
sg18
F228.81
sg19
F229.23999999999998
sg20
F2.79
sg21
F0.31
sg22
F767.72
sg23
F0.24
sg24
F49.58
sg25
F0.0
sg26
F0.27
sg27
F0.0
sg28
F0.0
sg29
F2701.75
sg30
F3.29
sg31
F0.0
sg32
F25.72
sg33
F29.59
sg34
F0.0
sg35
F30.86
sg36
F1.1300000000000001
sg37
F14.18
sg38
F4.67
sg39
F4.07
sg40
F414.23
sg41
F458.24
sg42
F0.08
sg43
F0.46
sg44
F328.65
sg45
F7.22
sg46
F5.67
sg47
F2.0
sg48
F8.579999999999998
sg49
F4.14
sg50
F333.65000000000003
sg51
F210.47
sg52
F2.46
sg53
F1.65
sg54
F0.0
sg55
F54.489999999999995
sg56
F2.5599999999999996
sg57
F14.03
sg58
F81.24000000000001
sg59
F5.84
sg60
F4582.4
sg61
F23.38
sg62
F967.8900000000001
sg63
F328.65
ssg64
g65
sg66
(lp524
S'chickpeas, dry'
p525
aS'parsnips, fresh, sliced'
p526
aS'kale, fresh, chopped'
p527
aS'brussels sprouts, fresh'
p528
aS'garlic cloves, fresh'
p529
aS'miso'
p530
aS'lemon juice, fresh'
p531
aS'vinegar, balsamic'
p532
aS'mustard, dijon'
p533
aS'plum paste, pickled, umeboshi'
p534
aS'soy sauce, tamari'
p535
aS'tofu, extra firm, Nasoya'
p536
aS'oil, olive'
p537
aS'seaweed, nori, fresh'
p538
aS'black pepper, ground'
p539
aS'water, tap'
p540
aS'sea salt'
p541
aS'bread, sprouted whole grain & seed, Ezekiel 4:9'
p542
aS'garlic powder'
p543
aS'nutritional yeast'
p544
aS'basil, dried, leaves'
p545
aS'oregano, dried, leaves'
p546
asg91
I0
sg92
g65
sg93
S'Chickpea Caesar Salad with Herbed Garlic Croutons'
p547
sba(i__main__
Meal
p548
(dp549
g3
(dp550
g5
F0.0
sg6
F155.13
sg7
F83.9
sg8
F0.01
sg9
F0.39
sg10
F412.04
sg11
F40.37
sg12
F0.29
sg13
F7.68
sg14
F0.33
sg15
F0.12
sg16
F1.45
sg17
F0.0
sg18
F85.58
sg19
F569.32
sg20
F0.07
sg21
F0.03
sg22
F656.4
sg23
F0.0
sg24
F18.63
sg25
F0.0
sg26
F2.26
sg27
F0.0
sg28
F0.0
sg29
F5971.14
sg30
F1.98
sg31
F0.0
sg32
F9.51
sg33
F17.8
sg34
F0.0
sg35
F15.44
sg36
F1.02
sg37
F3.29
sg38
F1.16
sg39
F0.17
sg40
F95.74
sg41
F1133.14
sg42
F0.0
sg43
F2.12
sg44
F102.35
sg45
F7.45
sg46
F3.89
sg47
F1.0
sg48
F1.72
sg49
F3.33
sg50
F343.09
sg51
F205.57
sg52
F0.82
sg53
F3.97
sg54
F1.44
sg55
F62.29
sg56
F21.48
sg57
F11.55
sg58
F114.15
sg59
F4.79
sg60
F11331.37
sg61
F21.56
sg62
F639.59
sg63
F77.94
ssg64
g65
sg66
(lp551
g415
ag416
aS'garlic, minced'
p552
ag417
aS'cilantro, fresh, leaves'
p553
ag418
aS'jalapeno peppers, fresh'
p554
ag419
ag420
aS'sea salt'
p555
aS'TOTAL'
p556
aS'oil, coconut'
p557
aS'sweet potatoes, fresh, cubes'
p558
aS'black beans, dry'
p559
aS'onion, yellow, fresh, chopped'
p560
aS'chili powder, Eagle, food service'
p561
aS'tofu, extra firm, Nasoya'
p562
aS'spinach, baby, fresh'
p563
aS'bell pepper, red, fresh, chopped'
p564
aS'turmeric, ground'
p565
aS'Alvarado Street Bakery Sprouted Whole Wheat Tortilla'
p566
asg91
I0
sg92
g65
sg93
S'Hippie Brunch Burrito with Green Salsa'
p567
sba(i__main__
Meal
p568
(dp569
g3
(dp570
g5
F0.0
sg6
F39.14
sg7
F41.7
sg8
F0.02
sg9
F0.12
sg10
F187.17
sg11
F24.15
sg12
F0.06
sg13
F6.54
sg14
F0.14
sg15
F0.05
sg16
F0.45
sg17
F0.0
sg18
F72.6
sg19
F219.85
sg20
F0.6
sg21
F0.07
sg22
F766.0
sg23
F0.0
sg24
F9.31
sg25
F0.0
sg26
F0.73
sg27
F0.0
sg28
F0.0
sg29
F4180.53
sg30
F0.79
sg31
F0.0
sg32
F8.34
sg33
F7.09
sg34
F0.0
sg35
F10.68
sg36
F0.14
sg37
F3.82
sg38
F1.12
sg39
F0.55
sg40
F17.25
sg41
F439.69
sg42
F0.07
sg43
F0.56
sg44
F41.48
sg45
F1.57
sg46
F0.68
sg47
F1.0
sg48
F0.26
sg49
F0.81
sg50
F282.04
sg51
F160.21
sg52
F0.35
sg53
F0.67
sg54
F0.29
sg55
F23.41
sg56
F1.67
sg57
F6.2
sg58
F23.69
sg59
F1.23
sg60
F4396.92
sg61
F5.2
sg62
F250.04
sg63
F41.48
ssg64
g65
sg66
(lp571
S'white onion'
p572
aS'tomatoes'
p573
aS'kalamata olives'
p574
aS'kalamata olive juice'
p575
aS'capers'
p576
aS'caper juice'
p577
aS'garlic'
p578
aS'olive oil'
p579
aS'chili pepper flakes'
p580
aS'parsley'
p581
aS'white beans'
p582
aS'seaweed'
p583
aS'red bell pepper'
p584
aS'carrots'
p585
aS'water'
p586
aS'sea salt'
p587
asg91
I0
sg92
g65
sg93
S'Penne w/ Puttanesca'
p588
sba(i__main__
Meal
p589
(dp590
g3
(dp591
g5
F0.0
sg6
F209.09
sg7
F374.44000000000005
sg8
F0.03
sg9
F1.56
sg10
F603.33
sg11
F97.86
sg12
F1.9300000000000002
sg13
F11.82
sg14
F0.93
sg15
F1.5
sg16
F3.0599999999999996
sg17
F0.0
sg18
F267.11
sg19
F829.97
sg20
F3.23
sg21
F0.35
sg22
F768.14
sg23
F2.09
sg24
F34.52
sg25
F6.63
sg26
F3.76
sg27
F0.15
sg28
F0.0
sg29
F9932.17
sg30
F4.08
sg31
F0.0
sg32
F29.729999999999997
sg33
F36.72
sg34
F0.0
sg35
F26.990000000000002
sg36
F2.07
sg37
F17.23
sg38
F1.8299999999999998
sg39
F4.26
sg40
F270.15
sg41
F1659.94
sg42
F0.11
sg43
F2.72
sg44
F210.65
sg45
F15.58
sg46
F6.13
sg47
F2.0
sg48
F1.96
sg49
F12.040000000000001
sg50
F402.7
sg51
F271.87
sg52
F9.19
sg53
F4.93
sg54
F0.57
sg55
F68.33
sg56
F9.68
sg57
F18.82
sg58
F143.11
sg59
F7.74
sg60
F16599.4
sg61
F22.130000000000003
sg62
F1483.78
sg63
F210.65
ssg64
g65
sg66
(lp592
S'brussels sprouts'
p593
aS'shiitake mushrooms'
p594
aS'sweet potatoes'
p595
aS'kale'
p596
aS'garlic '
p597
aS'white onion'
p598
aS'white beans'
p599
aS'Gluten free tamari'
p600
aS'olive oil'
p601
aS'black pepper'
p602
aS'rosemary'
p603
aS'cashews'
p604
aS'water'
p605
aS'lemon juice'
p606
aS'nutritional yeast'
p607
aS'apple cider vinegar'
p608
aS'nutmeg'
p609
aS'sea salt'
p610
aS'pecans'
p611
asg91
I0
sg92
g65
sg93
S'Brussels Sprouts Gratin with Toasted Pecans (GF)'
p612
sba(i__main__
Meal
p613
(dp614
g3
(dp615
g5
F2.97
sg6
F100.56
sg7
F160.04
sg8
F0.06
sg9
F0.24
sg10
F509.83
sg11
F12.06
sg12
F0.11
sg13
F8.63
sg14
F0.44
sg15
F0.26
sg16
F0.88
sg17
F0.0
sg18
F154.6
sg19
F62.61
sg20
F2.26
sg21
F0.15
sg22
F765.6
sg23
F0.05
sg24
F12.94
sg25
F0.4
sg26
F0.16
sg27
F0.01
sg28
F0.0
sg29
F91.16
sg30
F3.06
sg31
F0.0
sg32
F18.26
sg33
F27.54
sg34
F0.0
sg35
F5.09
sg36
F0.55
sg37
F9.3
sg38
F1.58
sg39
F0.0
sg40
F7.26
sg41
F125.23
sg42
F0.06
sg43
F0.53
sg44
F25.79
sg45
F0.75
sg46
F3.65
sg47
F2.0
sg48
F0.79
sg49
F4.18
sg50
F311.51
sg51
F195.65
sg52
F2.52
sg53
F3.54
sg54
F0.3
sg55
F62.4
sg56
F4.02
sg57
F8.48
sg58
F54.28
sg59
F3.68
sg60
F1252.26
sg61
F21.03
sg62
F563.65
sg63
F25.79
ssg64
g65
sg66
(lp616
S'oil, olive'
p617
aS'onion, yellow, fresh, chopped'
p618
aS'garlic, minced'
p619
aS'celery, fresh, stalk'
p620
aS'carrots, fresh'
p621
aS'tempeh'
p622
aS'mushrooms, crimini, fresh'
p623
aS'black pepper, ground'
p624
aS'nutmeg, ground'
p625
aS'tomatoes, crushed, canned'
p626
aS'tomato sauce'
p627
aS'wine, white, chardonnay'
p628
aS'cashews, raw, whole'
p629
aS'bay leaf, dried'
p630
aS'water, tap'
p631
aS'sea salt'
p632
aS'Spelt pasta'
p633
asg91
I0
sg92
g65
sg93
S'Marcella Inspired Bolognese with Spelt Fusilli'
p634
sba(i__main__
Meal
p635
(dp636
g3
(dp637
g5
F0.0
sg6
F212.21
sg7
F303.84
sg8
F0.01
sg9
F0.51
sg10
F511.49
sg11
F64.52
sg12
F0.48
sg13
F11.35
sg14
F1.15
sg15
F0.21
sg16
F1.95
sg17
F0.0
sg18
F86.35
sg19
F591.85
sg20
F0.32
sg21
F0.21
sg22
F772.16
sg23
F0.0
sg24
F10.83
sg25
F0.0
sg26
F1.71
sg27
F0.0
sg28
F0.0
sg29
F6986.23
sg30
F5.27
sg31
F0.0
sg32
F9.59
sg33
F47.42
sg34
F0.0
sg35
F36.78
sg36
F0.87
sg37
F0.43
sg38
F1.36
sg39
F4.19
sg40
F343.99
sg41
F1183.71
sg42
F0.0
sg43
F1.94
sg44
F270.7
sg45
F7.26
sg46
F0.53
sg47
F2.0
sg48
F1.28
sg49
F3.94
sg50
F347.62
sg51
F159.24
sg52
F1.53
sg53
F2.42
sg54
F0.97
sg55
F87.05
sg56
F7.92
sg57
F20.85
sg58
F133.57
sg59
F7.13
sg60
F11837.05
sg61
F20.21
sg62
F1252.62
sg63
F270.7
ssg64
g65
sg66
(lp638
S'oil, coconut'
p639
aS'onion, white, fresh, chopped'
p640
aS'garlic, minced'
p641
aS'ginger root, fresh'
p642
aS'sweet potatoes, fresh, cubes'
p643
aS'tomato sauce'
p644
aS'spice blend, curry, powder'
p645
aS'coconut milk, canned, light'
p646
aS'kale, fresh, chopped'
p647
aS'beans, small white, dry'
p648
aS'water, tap'
p649
aS'sea salt, california'
p650
aS'quinoa, tricolor, dry'
p651
asg91
I0
sg92
g65
sg93
S'White Bean Korma with Tricolor Quinoa (GF)'
p652
sba(i__main__
Meal
p653
(dp654
g3
(dp655
g5
F0.0
sg6
F170.82
sg7
F207.31
sg8
F0.04
sg9
F0.5
sg10
F453.15
sg11
F46.82
sg12
F0.38
sg13
F16.74
sg14
F0.49
sg15
F0.19
sg16
F2.1
sg17
F0.0
sg18
F88.05
sg19
F219.51
sg20
F2.03
sg21
F0.11
sg22
F766.08
sg23
F0.0
sg24
F82.27
sg25
F0.0
sg26
F1.4500000000000002
sg27
F0.0
sg28
F0.0
sg29
F1769.0
sg30
F1.06
sg31
F0.0
sg32
F9.85
sg33
F9.57
sg34
F0.0
sg35
F29.830000000000002
sg36
F1.32
sg37
F3.56
sg38
F1.29
sg39
F2.91
sg40
F51.6
sg41
F439.02
sg42
F0.0
sg43
F3.11
sg44
F392.15999999999997
sg45
F5.66
sg46
F2.1399999999999997
sg47
F2.0
sg48
F13.42
sg49
F4.92
sg50
F431.26
sg51
F309.92
sg52
F2.51
sg53
F3.3099999999999996
sg54
F1.55
sg55
F73.32000000000001
sg56
F0.94
sg57
F16.45
sg58
F77.06
sg59
F6.779999999999999
sg60
F4390.12
sg61
F20.02
sg62
F939.44
sg63
F378.24
ssg64
g65
sg66
(lp656
S'oil, olive'
p657
aS'onion, yellow, fresh, chopped'
p658
aS'garlic, minced'
p659
aS'ginger root, fresh'
p660
aS'jalapeno peppers, fresh'
p661
aS'coriander seed, ground'
p662
aS'cumin seeds, ground'
p663
aS'cayenne chili pepper, dried, ground'
p664
aS'turmeric, ground'
p665
aS'paprika, ground'
p666
aS'spice blend, garam masala'
p667
aS'tomatoes, crushed'
p668
aS'chickpeas, dry'
p669
aS'cauliflower florets, fresh'
p670
aS'spinach, baby, fresh'
p671
aS'lemon juice, fresh'
p672
aS'water, tap'
p673
aS'sea salt'
p674
aS'rice, brown'
p675
aS'cumin seeds'
p676
aS'peas, green, frozen'
p677
asg91
I0
sg92
g65
sg93
S'Chana Masala with Indian-Spiced Rice (GF)'
p678
sba(i__main__
Meal
p679
(dp680
g3
(dp681
g5
F0.0
sg6
F139.84
sg7
F246.14
sg8
F0.0
sg9
F0.44
sg10
F542.6
sg11
F120.46
sg12
F0.22
sg13
F16.87
sg14
F0.63
sg15
F0.17
sg16
F1.59
sg17
F0.0
sg18
F321.48
sg19
F189.85
sg20
F6.92
sg21
F0.2
sg22
F764.0
sg23
F0.0
sg24
F57.2
sg25
F0.0
sg26
F1.19
sg27
F0.0
sg28
F0.0
sg29
F2171.32
sg30
F3.31
sg31
F0.0
sg32
F36.08
sg33
F29.78
sg34
F0.0
sg35
F20.78
sg36
F0.98
sg37
F18.96
sg38
F9.28
sg39
F2.82
sg40
F265.79
sg41
F379.69
sg42
F0.28
sg43
F2.78
sg44
F111.01
sg45
F11.94
sg46
F7.13
sg47
F1.0
sg48
F1.22
sg49
F3.11
sg50
F367.98
sg51
F238.33
sg52
F1.79
sg53
F6.88
sg54
F0.0
sg55
F49.4
sg56
F2.65
sg57
F11.41
sg58
F100.78
sg59
F3.82
sg60
F3796.94
sg61
F11.97
sg62
F876.69
sg63
F111.01
ssg64
g65
sg66
(lp682
S'tricolor quinoa'
p683
aS'brown rice'
p684
aS'cauliflower'
p685
aS'celery root'
p686
aS'kohlrabi'
p687
aS'brussels sprouts'
p688
aS'winter squash'
p689
aS'kale'
p690
aS'apple'
p691
aS'red onion'
p692
aS'dried cranberries'
p693
aS'almonds'
p694
aS'pumpkin seeds'
p695
aS'pecans'
p696
aS'almond oil'
p697
aS'balsamic vinegar'
p698
aS'lemon juice'
p699
aS'parsley'
p700
aS'sea salt'
p701
asg91
I0
sg92
g65
sg93
S'Harvest Grain Bowl (GF)'
p702
sba(i__main__
Meal
p703
(dp704
g3
(dp705
g5
F0.0
sg6
F146.01999999999998
sg7
F146.06
sg8
F0.01
sg9
F0.48000000000000004
sg10
F444.44
sg11
F60.6
sg12
F0.54
sg13
F8.15
sg14
F0.21
sg15
F0.61
sg16
F1.03
sg17
F0.0
sg18
F148.17000000000002
sg19
F10.23
sg20
F1.78
sg21
F0.02
sg22
F762.85
sg23
F0.66
sg24
F59.25
sg25
F0.0
sg26
F0.58
sg27
F0.0
sg28
F0.0
sg29
F121.72
sg30
F2.13
sg31
F0.0
sg32
F16.67
sg33
F19.200000000000003
sg34
F0.0
sg35
F40.95
sg36
F0.8800000000000001
sg37
F10.440000000000001
sg38
F3.7800000000000002
sg39
F1.03
sg40
F49.080000000000005
sg41
F20.459999999999997
sg42
F0.04
sg43
F11.55
sg44
F78.24000000000001
sg45
F10.469999999999999
sg46
F3.2199999999999998
sg47
F2.0
sg48
F0.53
sg49
F3.79
sg50
F465.86
sg51
F127.77
sg52
F2.9000000000000004
sg53
F2.38
sg54
F0.28
sg55
F60.9
sg56
F1.5
sg57
F11.799999999999999
sg58
F65.94999999999999
sg59
F3.2800000000000002
sg60
F204.61
sg61
F17.68
sg62
F566.48
sg63
F78.24000000000001
ssg64
g65
sg66
(lp706
S'stock, vegetable, organic'
p707
aS'cauliflower florets, fresh'
p708
aS'vinegar, white wine'
p709
aS'oil, olive, pure'
p710
aS'onion, yellow, fresh'
p711
aS'garlic cloves, fresh'
p712
aS'celery, fresh, diced'
p713
aS'wheat, farro, dry'
p714
aS'black pepper, ground'
p715
aS'parsley, fresh, chopped'
p716
aS'cannellini beans, dry'
p717
aS'lemon juice, fresh'
p718
aS'nutritional yeast'
p719
aS'cashews, raw, whole'
p720
aS'water, tap'
p721
aS'sea salt'
p722
aS'almonds, slivered'
p723
aS'cayenne chili pepper, dried, ground'
p724
asg91
I0
sg92
g65
sg93
S'Cauliflower Farrotto with Spicy Almonds'
p725
sba.