(dp0
S'tomato sauce, canned, unsalted'
p1
S'tomato'
p2
sS'bell pepper'
p3
S'pepper, bell'
p4
sS'kale'
p5
S'kale'
p6
sS'eggplant, fresh, cubes'
p7
S'egg'
p8
sS'tomato sauce, canned'
p9
g2
sS'kale, fresh, chopped'
p10
g6
sS'onion, yellow, fresh, chopped'
p11
S'onion'
p12
sS'onion powder'
p13
g12
sS'soy sauce, tamari'
p14
S'soy'
p15
sS'avocado'
p16
S'avocado'
p17
sS'celery'
p18
S'celery'
p19
sS'vit k'
p20
S'vitamin k'
p21
sS'bell pepper, yellow, fresh, large, 3 3/4"'
p22
g4
sS'celery, fresh, diced'
p23
g19
sS'black beans, dry'
p24
S'bean'
p25
sS'red bell pepper'
p26
g4
sS'jalapeno peppers, fresh'
p27
S'pepper, hot'
p28
sS'chili peppers, powder'
p29
g28
sS'jalapeno peppers'
p30
g28
sS'poblano peppers, fresh, sliced'
p31
g28
sS'pinto beans, dry'
p32
g25
sS'ginger root, fresh, 1" sliced'
p33
S'ginger'
p34
sS'carrots, fresh'
p35
S'carrot'
p36
sS'garlic cloves, fresh'
p37
S'garlic'
p38
sS'onion, red, fresh'
p39
g12
sS'kidney beans, all types, dry'
p40
g25
sS'chili pepper powder'
p41
g28
sS'turmeric, ground'
p42
S'turmeric (curcumin)'
p43
sS'green lentil penne'
p44
S'lentil'
p45
sS'pinto beans'
p46
g25
sS'brussels sprouts'
p47
S'brussel sprouts'
p48
sS'beans, small white, dry'
p49
g25
sS'onion, cippolini, fresh, peeled, medium'
p50
g12
sS'avocado, california, fresh'
p51
g17
sS'cannellini beans, dry'
p52
g25
sS'cauliflower'
p53
S'cauliflower'
p54
sS'coconut oil'
p55
S'coconut oil'
p56
sS'pine nuts'
p57
S'nut, nut butter'
p58
sS'green bell pepper'
p59
g4
sS'celery root'
p60
g19
sS'cauliflower florets, fresh'
p61
g54
sS'onion, white, fresh, chopped'
p62
g12
sS'eggplant'
p63
g8
sS'sod'
p64
S'sodium'
p65
sS'pot'
p66
S'potassium'
p67
sS'red onion'
p68
g12
sS'cherry tomatoes'
p69
g2
sS'chili peppers, red, crushed flakes'
p70
g28
sS'spinach'
p71
S'spinach'
p72
sS'cayenne chili pepper, dried, ground'
p73
g28
sS'parsley'
p74
S'parsley'
p75
sS'totfib'
p76
S'fiber'
p77
sS'white onion'
p78
g12
sS'carrots, fresh, chopped'
p79
g36
sS'broccoli florets, fresh'
p80
S'broccoli'
p81
sS'spice blend, curry, powder'
p82
S'spicy powder'
p83
sS'poblano peppers'
p84
g28
sS'spinach, baby, fresh'
p85
g72
sS'garlic powder'
p86
g38
sS'chili pepper flakes'
p87
g28
sS'parsley, fresh, chopped'
p88
g75
sS'bell pepper, red, fresh, chopped'
p89
g4
sS'tomatoes, crushed'
p90
g2
sS'yellow bell pepper'
p91
g4
sS'carrots'
p92
g36
sS'onion, yellow, fresh'
p93
g12
sS'broccoli rabe stalk, fresh'
p94
g81
sS'yellow onion'
p95
g12
sS'ginger root, fresh'
p96
g34
sS'brussels sprouts, fresh'
p97
g48
sS'parsley, fresh, sprigs'
p98
g75
sS'tofu, super firm, nasoya, cubed'
p99
g15
sS'garlic, minced'
p100
g38
sS'tomato sauce'
p101
g2
sS'yukon gold potatoes'
p102
S'potato'
p103
sS'celery, fresh, stalk'
p104
g19
sS'tomatoes'
p105
g2
sS'tomatoes, crushed, canned'
p106
g2
sS'black pepper'
p107
g83
sS'garlic'
p108
g38
sS'tofu, extra firm, nasoya'
p109
g15
sS'pasta, penne, lentil, dry, 10847, food service'
p110
g45
sS'ginger root'
p111
g34
sS'cayenne chili pepper'
p112
g28
sS'red lentils'
p113
g45
sS'black pepper, ground'
p114
g83
sS'white beans'
p115
g25
sS'turmeric'
p116
g43
s.