(dp0
S'tomato sauce, canned, unsalted'
p1
S'tomato'
p2
sS'bell pepper'
p3
S'peppers, bell'
p4
sS'kale'
p5
S'kale'
p6
sS'garlic, minced'
p7
S'garlic'
p8
sS'eggplant, fresh, cubes'
p9
S'egg'
p10
sS'tomato sauce, canned'
p11
g2
sS'peas, green, boiled, from frozen, drained'
p12
S'oil'
p13
sS'onion, yellow, fresh, chopped'
p14
S'onion'
p15
sS'onion powder'
p16
g15
sS'soy sauce, tamari'
p17
S'soy'
p18
sS'avocado'
p19
S'avocado'
p20
sS'celery'
p21
S'celery'
p22
sS'vit k'
p23
S'vitamin k'
p24
sS'bell pepper, yellow, fresh, large, 3 3/4"'
p25
g4
sS'celery, fresh, diced'
p26
g22
sS'black beans, dry'
p27
S'beans'
p28
sS'garlic powder'
p29
g8
sS'red bell pepper'
p30
g4
sS'jalapeno peppers, fresh'
p31
S'peppers, hot'
p32
sS'chili peppers, powder'
p33
g32
sS'jalapeno peppers'
p34
g32
sS'onion'
p35
g15
sS'poblano peppers, fresh, sliced'
p36
g32
sS'pinto beans, dry'
p37
g28
sS'navy beans, dry'
p38
g28
sS'ginger root, fresh, 1" sliced'
p39
S'ginger'
p40
sS'carrots, fresh'
p41
S'carrot'
p42
sS'garlic cloves, fresh'
p43
g8
sS'onion, red, fresh'
p44
g15
sS'kidney beans, all types, dry'
p45
g28
sS'chili pepper powder'
p46
g32
sS'turmeric, ground'
p47
S'turmeric'
p48
sS'lentil'
p49
S'lentil'
p50
sS'green lentil penne'
p51
g50
sS'lentils'
p52
g50
sS'brussels sprouts'
p53
S'brussels sprouts'
p54
sS'beans, small white, dry'
p55
g28
sS'onion, cippolini, fresh, peeled, medium'
p56
g15
sS'avocado, california, fresh'
p57
g20
sS'black pepper, ground'
p58
S'spicy powders'
p59
sS'cannellini beans, dry'
p60
g28
sS'lentils, green, dry'
p61
g50
sS'cauliflower'
p62
S'cauliflower'
p63
sS'pine nuts'
p64
S'nuts'
p65
sS'green bell pepper'
p66
g4
sS'celery root'
p67
g22
sS'cauliflower florets, fresh'
p68
g63
sS'onion, white, fresh, chopped'
p69
g15
sS'beans'
p70
g28
sS'eggplant'
p71
g10
sS'peppers, hot'
p72
g32
sS'sod'
p73
S'sodium'
p74
sS'pot'
p75
S'potassium'
p76
sS'red onion'
p77
g15
sS'celery root, fresh'
p78
g22
sS'prairie turnips, northern plains, fresh'
p79
S'turnips'
p80
sS'cherry tomatoes'
p81
g2
sS'bell pepper, red, roasted'
p82
g4
sS'soy'
p83
g18
sS'ginger root'
p84
g40
sS'chili peppers, red, crushed flakes'
p85
g32
sS'spinach'
p86
S'spinach'
p87
sS'cayenne chili pepper, dried, ground'
p88
g32
sS'parsley'
p89
S'parsley'
p90
sS'totfib'
p91
S'total fiber'
p92
sS'white onion'
p93
g15
sS'carrots, fresh, chopped'
p94
g42
sS'butter'
p95
S'butter'
p96
sS'broccoli florets, fresh'
p97
S'broccoli'
p98
sS'tomatoes, diced, canned, unsalted'
p99
g2
sS'spice blend, curry, powder'
p100
g59
sS'poblano peppers'
p101
g32
sS'spinach, baby, fresh'
p102
g87
sS'cannellini beans'
p103
g28
sS'chili pepper flakes'
p104
g32
sS'parsley, fresh, chopped'
p105
g90
sS'onion, yellow, fresh'
p106
g15
sS'bell pepper, red, fresh, chopped'
p107
g4
sS'peppers, bell'
p108
g4
sS'tomatoes, crushed'
p109
g2
sS'yellow bell pepper'
p110
g4
sS'carrots'
p111
g42
sS'ginger'
p112
g40
sS'raw'
p113
S'raw'
p114
sS'broccoli rabe stalk, fresh'
p115
g98
sS'yellow onion'
p116
g15
sS'ginger root, fresh'
p117
g40
sS'walnuts, english, dried, chopped'
p118
S'walnut'
p119
sS'brussels sprouts, fresh'
p120
g54
sS'pumpkin seeds, raw, shelled'
p121
g114
sS'parsley, fresh, sprigs'
p122
g90
sS'garlic cloves'
p123
g8
sS'tofu, super firm, nasoya, cubed'
p124
g18
sS'nuts'
p125
g65
sS'tomato sauce'
p126
g2
sS'yukon gold potatoes'
p127
S'potato'
p128
sS'celery, fresh, stalk'
p129
g22
sS'tomatoes'
p130
g2
sS'zucchini'
p131
S'zucchini'
p132
sS'pinto beans'
p133
g28
sS'oil'
p134
g13
sS'tomatoes, crushed, canned'
p135
g2
sS'flax'
p136
S'flax'
p137
sS'black pepper'
p138
g59
sS'garlic'
p139
g8
sS'tofu, extra firm, nasoya'
p140
g18
sS'pasta, penne, lentil, dry, 10847, food service'
p141
g50
sS'cabbage'
p142
S'cabbage'
p143
sS'cabbage, green, fresh, head'
p144
g143
sS'broccoli'
p145
g98
sS'tomato'
p146
g2
sS'cayenne chili pepper'
p147
g32
sS'red lentils'
p148
g50
sS'kale, fresh, chopped'
p149
g6
sS'insoluble fiber'
p150
S'insoluble fiber'
p151
sS'white beans'
p152
g28
sS'walnuts, california, halves & pieces'
p153
g119
sS'turmeric'
p154
g48
s.