(lp0
(imodel
Meal
p1
(dp2
S'nutrition'
p3
(dp4
S'Alc (g)'
p5
F0.48
sS'Calc (mg)'
p6
F110.23
sS'Phos (mg)'
p7
F141.46
sS'Fluor (mg)'
p8
F0.02
sS'Vit B6 (mg)'
p9
F0.88
sS'Cals (kcal)'
p10
F483.02
sS'Vit C (mg)'
p11
F86.58
sS'Vit B1 (mg)'
p12
F0.91
sS'Sugar (g)'
p13
F10.1
sS'Copp (mg)'
p14
F0.18
sS'Vit B2 (mg)'
p15
F0.79
sS'Zinc (mg)'
p16
F1.03
sS'Caff (mg)'
p17
F0.0
sS'FatCals (kcal)'
p18
F140.6
sS'Vit A-RAE (mcg)'
p19
F570.57
sS'Omega6 (g)'
p20
F0.43
sS'Omega3 (g)'
p21
F0.11
sS'Sod (mg)'
p22
F766.0
sS'Vit B12 (mcg)'
p23
F1.1
sS'Chln (mg)'
p24
F29.43
sS'Vit D-IU (IU)'
p25
F5.1
sS'Disacc (g)'
p26
F0.61
sS'Vit D-mcg (mcg)'
p27
F0.11
sS'TransFat (g)'
p28
F0.0
sS'BetaCaro (mcg)'
p29
F4241.85
sS'SatFat (g)'
p30
F2.48
sS'Retinol (mcg)'
p31
F0.0
sS'Fat (g)'
p32
F15.68
sS'SatCals (kcal)'
p33
F22.36
sS'Chol (mg)'
p34
F0.0
sS'OCarb (g)'
p35
F45.98
sS'Panto (mg)'
p36
F1.46
sS'MonoFat (g)'
p37
F9.11
sS'Vit E-a-Toco (mg)'
p38
F1.81
sS'TotSolFib (g)'
p39
F0.66
sS'Vit K (mcg)'
p40
F14.11
sS'Caroten (mcg)'
p41
F1141.15
sS'Chrom (mcg)'
p42
F0.09
sS'Biot (mcg)'
p43
F1.86
sS'Folate (mcg)'
p44
F95.14
sS'Moly (mcg)'
p45
F10.07
sS'PolyFat (g)'
p46
F2.4
sS'Quantity'
p47
F1.0
sS'Mang (mg)'
p48
F0.64
sS'Vit B3-NE (mg)'
p49
F6.42
sS'Wgt (g)'
p50
F435.8
sS'Water (g)'
p51
F226.28
sS'Vit B3 (mg)'
p52
F5.66
sS'MonSac (g)'
p53
F3.4
sS'Iodine (mcg)'
p54
F0.0
sS'Carb (g)'
p55
F67.21
sS'Sel (mcg)'
p56
F4.6
sS'TotFib (g)'
p57
F11.14
sS'Magn (mg)'
p58
F59.38
sS'Iron (mg)'
p59
F4.02
sS'Vit A-IU (IU)'
p60
F11411.49
sS'Prot (g)'
p61
F21.1
sS'Pot (mg)'
p62
F1106.46
sS'Fol_DFE (mcg DFE)'
p63
F95.14
ssS'supplierID'
p64
S''
p65
sS'ingredients'
p66
(lp67
S'shallots, fresh, chopped'
p68
aS'garlic cloves, fresh'
p69
aS'oil, olive'
p70
aS'wine, cooking, white'
p71
aS'stock, vegetable, organic'
p72
aS'cauliflower florets, fresh'
p73
aS'squash, butternut, fresh, cubes'
p74
aS'carrots, fresh, chopped'
p75
aS'broccoli florets, fresh'
p76
aS'mushrooms, shiitake, fresh'
p77
aS'nutritional yeast'
p78
aS'mustard, dijon'
p79
aS'pasta, penne, lentil, dry, 10847, food service'
p80
aS'turmeric, ground'
p81
aS'garlic powder'
p82
aS'onion powder'
p83
aS'black pepper, ground'
p84
aS'cashews, raw, whole'
p85
aS'water, tap'
p86
aS'bread, sprouted seven grain'
p87
aS'seaweed, nori, fresh'
p88
aS'chili peppers, red, crushed flakes'
p89
aS'sea salt'
p90
asS'price'
p91
I0
sS'type'
p92
g65
sS'name'
p93
S"Magic Mac 'Un' Cheese"
p94
sba(imodel
Meal
p95
(dp96
g3
(dp97
g5
F0.0
sg6
F165.7
sg7
F470.79999999999995
sg8
F0.02
sg9
F0.65
sg10
F565.0600000000001
sg11
F39.79
sg12
F0.47
sg13
F5.0
sg14
F0.81
sg15
F0.45
sg16
F2.6399999999999997
sg17
F0.0
sg18
F215.51
sg19
F124.22000000000001
sg20
F4.890000000000001
sg21
F0.34
sg22
F766.5699999999999
sg23
F0.07
sg24
F34.24
sg25
F0.0
sg26
F1.15
sg27
F0.0
sg28
F0.0
sg29
F1295.99
sg30
F4.32
sg31
F0.0
sg32
F24.1
sg33
F38.910000000000004
sg34
F0.0
sg35
F45.93
sg36
F1.2100000000000002
sg37
F11.96
sg38
F2.97
sg39
F0.18
sg40
F132.09
sg41
F248.44000000000003
sg42
F0.32999999999999996
sg43
F1.29
sg44
F126.67999999999999
sg45
F1.59
sg46
F5.87
sg47
F3.0
sg48
F2.8899999999999997
sg49
F11.1
sg50
F299.84000000000003
sg51
F135.27
sg52
F6.64
sg53
F1.21
sg54
F0.18
sg55
F65.08
sg56
F12.31
sg57
F7.88
sg58
F175.14999999999998
sg59
F6.01
sg60
F2484.39
sg61
F27.82
sg62
F898.4399999999999
sg63
F126.67999999999999
ssg64
g65
sg66
(lp98
S'tempeh'
p99
aS'pinto beans'
p100
aS'Gluten free tamari'
p101
aS'red onion'
p102
aS'red bell pepper'
p103
aS'poblano peppers'
p104
aS'yellow corn'
p105
aS'swiss chard'
p106
aS'water'
p107
aS'olive oil'
p108
aS'chili pepper powder'
p109
aS'cumin'
p110
aS'paprika'
p111
aS'garlic powder'
p112
aS'oregano'
p113
aS'cayenne chili pepper'
p114
aS'black pepper'
p115
aS'sea salt'
p116
aS'brown rice'
p117
aS'cilantro'
p118
aS'lime juice'
p119
aS'avocado'
p120
aS'cashews'
p121
asg91
I0
sg92
g65
sg93
S'Burrito Bowl with Cilantro Lime Rice & Avocado Crema (GF)'
p122
sba(imodel
Meal
p123
(dp124
g3
(dp125
g5
F0.0
sg6
F283.32
sg7
F303.14
sg8
F0.0
sg9
F0.48
sg10
F421.66
sg11
F61.66
sg12
F0.42
sg13
F11.89
sg14
F0.9
sg15
F0.2
sg16
F3.31
sg17
F0.0
sg18
F65.81
sg19
F181.35
sg20
F1.01
sg21
F0.21
sg22
F765.2
sg23
F0.0
sg24
F65.74
sg25
F0.0
sg26
F0.41
sg27
F0.0
sg28
F0.0
sg29
F427.64
sg30
F0.98
sg31
F0.0
sg32
F7.39
sg33
F8.78
sg34
F0.0
sg35
F37.2
sg36
F0.89
sg37
F3.36
sg38
F1.81
sg39
F3.43
sg40
F211.55
sg41
F362.7
sg42
F0.15
sg43
F1.21
sg44
F401.27
sg45
F9.41
sg46
F1.22
sg47
F1.0
sg48
F2.2
sg49
F6.12
sg50
F481.8
sg51
F167.72
sg52
F2.31
sg53
F1.92
sg54
F0.69
sg55
F68.34
sg56
F10.98
sg57
F19.19
sg58
F208.76
sg59
F11.54
sg60
F3626.99
sg61
F22.72
sg62
F1854.79
sg63
F331.45
ssg64
g65
sg66
(lp126
S'white beans'
p127
aS'garlic'
p128
aS'white onion'
p129
aS'poblano peppers'
p130
aS'zucchini'
p131
aS'cumin'
p132
aS'coriander'
p133
aS'lime juice'
p134
aS'spinach'
p135
aS'cayenne chili pepper'
p136
aS'oregano'
p137
aS'cilantro'
p138
aS'Organic vegetable stock'
p139
aS'tomatillos'
p140
aS'shallots'
p141
aS'jalapeno peppers'
p142
aS'olive oil'
p143
aS'black pepper'
p144
aS'sea salt'
p145
asg91
I0
sg92
g65
sg93
S'Green Tomatillo Chili'
p146
sba(imodel
Meal
p147
(dp148
g3
(dp149
g5
F0.0
sg6
F103.49
sg7
F128.49
sg8
F0.13
sg9
F0.27
sg10
F344.85
sg11
F37.519999999999996
sg12
F0.26
sg13
F6.300000000000001
sg14
F0.24
sg15
F0.07
sg16
F0.8500000000000001
sg17
F0.0
sg18
F92.14
sg19
F331.84
sg20
F3.27
sg21
F0.42000000000000004
sg22
F765.9799999999999
sg23
F0.0
sg24
F25.38
sg25
F0.0
sg26
F0.48
sg27
F0.0
sg28
F0.0
sg29
F2180.92
sg30
F2.73
sg31
F0.0
sg32
F10.24
sg33
F24.529999999999998
sg34
F0.0
sg35
F28.06
sg36
F0.58
sg37
F1.66
sg38
F2.38
sg39
F0.41000000000000003
sg40
F100.32000000000001
sg41
F663.68
sg42
F0.08
sg43
F1.67
sg44
F89.65
sg45
F5.72
sg46
F1.99
sg47
F2.0
sg48
F0.98
sg49
F2.7
sg50
F457.76
sg51
F288.87
sg52
F1.45
sg53
F2.69
sg54
F0.6
sg55
F47.11
sg56
F3.53
sg57
F12.34
sg58
F86.0
sg59
F5.53
sg60
F6636.780000000001
sg61
F19.43
sg62
F830.01
sg63
F53.19
ssg64
g65
sg66
(lp150
S'butternut squash'
p151
aS'cauliflower'
p152
aS'white onion'
p153
aS'garlic '
p154
aS'ginger root'
p155
aS'red lentils'
p156
aS'tomatoes'
p157
aS'water'
p158
aS'spinach'
p159
aS'black pepper'
p160
aS'lemon juice'
p161
aS'coconut oil'
p162
aS'saffron powder'
p163
aS'turmeric'
p164
aS'coriander'
p165
aS'cumin'
p166
aS'paprika'
p167
aS'Sea Salt'
p168
aS'hemp seeds'
p169
aS'pumpkin seeds'
p170
aS'sunflower seeds'
p171
asg91
I0
sg92
g65
sg93
S'Butternut Squash Red Lentil Dal with Brown Rice and Three Seed Topping'
p172
sba(imodel
Meal
p173
(dp174
g3
(dp175
g5
F0.0
sg6
F177.16
sg7
F312.88
sg8
F0.01
sg9
F0.51
sg10
F463.16
sg11
F91.16
sg12
F0.29
sg13
F16.4
sg14
F1.0
sg15
F0.74
sg16
F2.74
sg17
F0.0
sg18
F122.83
sg19
F81.14
sg20
F3.05
sg21
F0.23
sg22
F763.0
sg23
F0.13
sg24
F24.65
sg25
F2.46
sg26
F0.03
sg27
F0.08
sg28
F0.0
sg29
F863.69
sg30
F2.54
sg31
F0.0
sg32
F13.7
sg33
F22.87
sg34
F0.0
sg35
F5.97
sg36
F1.89
sg37
F5.96
sg38
F1.91
sg39
F0.1
sg40
F31.44
sg41
F157.45
sg42
F0.17
sg43
F0.0
sg44
F67.54
sg45
F5.73
sg46
F3.98
sg47
F1.0
sg48
F2.51
sg49
F10.49
sg50
F502.95
sg51
F212.23
sg52
F5.74
sg53
F5.75
sg54
F0.22
sg55
F64.87
sg56
F40.63
sg57
F10.5
sg58
F144.15
sg59
F5.88
sg60
F1574.46
sg61
F26.81
sg62
F1456.91
sg63
F78.4
ssg64
g65
sg66
(lp176
S'tempeh'
p177
aS'thyme, dried, leaves'
p178
aS'oregano, dried, leaves'
p179
aS'paprika'
p180
aS'garlic, minced'
p181
aS'black pepper, ground'
p182
aS'vinegar, balsamic'
p183
aS'soy sauce, tamari'
p184
aS'tomato sauce, canned, unsalted'
p185
aS'mushrooms, crimini, fresh'
p186
aS'onion, red, fresh'
p187
aS'bell pepper, red, fresh, chopped'
p188
aS'bell pepper, yellow, fresh, large, 3 3/4"'
p189
aS'basil, dried, ground'
p190
aS'oil, olive'
p191
aS'lemon juice, fresh'
p192
aS'zucchini, fresh, with skin'
p193
aS'Alvarado Street Bakery Sprouted Whole Wheat Tortilla'
p194
aS'sea salt'
p195
asg91
I0
sg92
g65
sg93
S'Pizza Pocket'
p196
sba(imodel
Meal
p197
(dp198
g3
(dp199
g5
F0.0
sg6
F168.93
sg7
F191.34
sg8
F0.0
sg9
F0.59
sg10
F382.27
sg11
F108.19
sg12
F0.34
sg13
F11.0
sg14
F0.5
sg15
F0.25
sg16
F1.87
sg17
F0.0
sg18
F88.32
sg19
F168.31
sg20
F1.18
sg21
F0.12
sg22
F763.9
sg23
F0.0
sg24
F76.9
sg25
F0.0
sg26
F0.14
sg27
F0.0
sg28
F0.0
sg29
F623.02
sg30
F1.85
sg31
F0.0
sg32
F9.81
sg33
F16.66
sg34
F0.0
sg35
F33.37
sg36
F1.37
sg37
F0.63
sg38
F1.9
sg39
F2.19
sg40
F243.34
sg41
F336.62
sg42
F0.16
sg43
F0.76
sg44
F366.1
sg45
F10.04
sg46
F1.3
sg47
F1.0
sg48
F9.51
sg49
F4.53
sg50
F441.43
sg51
F214.42
sg52
F2.53
sg53
F5.27
sg54
F0.04
sg55
F59.29
sg56
F1.21
sg57
F13.35
sg58
F99.27
sg59
F6.24
sg60
F3366.24
sg61
F17.59
sg62
F897.5
sg63
F302.57
ssg64
g65
sg66
(lp200
S'wheat, farro, dry'
p201
aS'chickpeas, dry'
p202
aS'broccoli rabe stalk, fresh'
p203
aS'zucchini, fresh, with skin'
p204
aS'cauliflower florets, fresh'
p205
aS'bell pepper, yellow, fresh, large, 3 3/4"'
p206
aS'garlic, minced'
p207
aS'onion, yellow, fresh, chopped'
p208
aS'tomatoes, crushed, canned'
p209
aS'broth, vegetable, organic'
p210
aS'oregano, dried, leaves'
p211
aS'spinach, baby, fresh'
p212
aS'pine nuts'
p213
aS'black pepper, ground'
p214
aS'lemon juice, fresh'
p215
aS'sea salt'
p216
asg91
I0
sg92
g65
sg93
S'Tuscan Farro Salad'
p217
sba(imodel
Meal
p218
(dp219
g3
(dp220
g5
F0.0
sg6
F188.08
sg7
F250.75
sg8
F0.0
sg9
F0.71
sg10
F425.4
sg11
F102.71
sg12
F0.19
sg13
F9.63
sg14
F0.51
sg15
F0.36
sg16
F1.44
sg17
F0.0
sg18
F148.58
sg19
F224.35
sg20
F3.44
sg21
F0.26
sg22
F767.0
sg23
F0.05
sg24
F22.31
sg25
F0.0
sg26
F0.73
sg27
F0.0
sg28
F0.0
sg29
F1748.44
sg30
F2.86
sg31
F0.02
sg32
F16.65
sg33
F25.77
sg34
F0.0
sg35
F35.25
sg36
F0.65
sg37
F7.58
sg38
F3.72
sg39
F0.09
sg40
F40.4
sg41
F448.68
sg42
F0.64
sg43
F5.18
sg44
F70.85
sg45
F13.04
sg46
F3.71
sg47
F1.0
sg48
F1.46
sg49
F5.95
sg50
F613.0199461
sg51
F284.5
sg52
F3.38
sg53
F7.14
sg54
F1.94
sg55
F59.28
sg56
F2.28
sg57
F9.84
sg58
F88.73
sg59
F5.84
sg60
F4558.81
sg61
F18.47
sg62
F944.15
sg63
F70.85
ssg64
g65
sg66
(lp221
S'Green bell pepper'
p222
aS'Red bell pepper'
p223
aS'black pepper'
p224
aS'Organic vegetable stock'
p225
aS'cayenne chili pepper'
p226
aS'celery'
p227
aS'chili pepper powder'
p228
aS'cumin'
p229
aS'garlic'
p230
aS'garlic powder'
p231
aS'jalapeno peppers'
p232
aS'olive oil'
p233
aS'white onion'
p234
aS'oregano'
p235
aS'paprika'
p236
aS'brown rice'
p237
aS'gluten free tamari'
p238
aS'squash'
p239
aS'tempeh'
p240
aS'thyme'
p241
aS'cherry tomatoes'
p242
aS'vegan worcestershire sauce'
p243
aS'zucchini'
p244
aS'sea salt'
p245
asg91
I0
sg92
g65
sg93
S'Louisiana Jambalaya'
p246
sba(imodel
Meal
p247
(dp248
g3
(dp249
g5
F0.0
sg6
F197.39
sg7
F138.55
sg8
F0.01
sg9
F1.11
sg10
F436.99
sg11
F105.44
sg12
F1.67
sg13
F11.59
sg14
F0.19
sg15
F1.45
sg16
F1.15
sg17
F0.0
sg18
F78.16
sg19
F336.24
sg20
F0.25
sg21
F0.17
sg22
F766.5
sg23
F2.25
sg24
F14.36
sg25
F0.0
sg26
F0.3
sg27
F0.0
sg28
F0.0
sg29
F245.06
sg30
F1.34
sg31
F0.0
sg32
F8.68
sg33
F12.06
sg34
F0.0
sg35
F39.52
sg36
F0.65
sg37
F4.62
sg38
F0.54
sg39
F0.79
sg40
F283.15
sg41
F672.49
sg42
F0.05
sg43
F2.63
sg44
F207.55
sg45
F17.68
sg46
F1.33
sg47
F1.0
sg48
F1.08
sg49
F7.77
sg50
F506.05
sg51
F337.56
sg52
F6.94
sg53
F3.28
sg54
F0.5
sg55
F66.01
sg56
F3.16
sg57
F12.23
sg58
F96.88
sg59
F5.95
sg60
F6724.9
sg61
F24.02
sg62
F1270.23
sg63
F100.82
ssg64
g65
sg66
(lp250
S'pasta, penne, lentil, dry, 10847, food service'
p251
aS'olives, black, canned'
p252
aS'tomatoes, crushed'
p253
aS'nutritional yeast'
p254
aS'basil, dried, ground'
p255
aS'oregano, fresh'
p256
aS'onion, white, fresh, chopped'
p257
aS'garlic, minced'
p258
aS'black pepper, ground'
p259
aS'chili peppers, red, crushed flakes'
p260
aS'beans, small white, dry'
p261
aS'spinach, baby, fresh'
p262
aS'zucchini, fresh, with skin'
p263
aS'broccoli florets, fresh'
p264
aS'cashews, raw, whole'
p265
aS'water, tap'
p266
aS'sea salt'
p267
asg91
I0
sg92
g65
sg93
S'Pasta Al Forno (GF)'
p268
sba(imodel
Meal
p269
(dp270
g3
(dp271
g5
F3.33
sg6
F42.72
sg7
F143.52
sg8
F0.07
sg9
F0.5
sg10
F486.67
sg11
F8.03
sg12
F0.67
sg13
F7.94
sg14
F0.35
sg15
F0.78
sg16
F1.25
sg17
F0.0
sg18
F106.85
sg19
F11.06
sg20
F0.72
sg21
F0.07
sg22
F767.5
sg23
F0.83
sg24
F21.34
sg25
F201.05
sg26
F0.51
sg27
F5.03
sg28
F0.0
sg29
F113.67
sg30
F1.27
sg31
F0.0
sg32
F11.99
sg33
F11.39
sg34
F0.0
sg35
F62.01
sg36
F1.2
sg37
F5.94
sg38
F1.0
sg39
F0.4
sg40
F34.68
sg41
F22.11
sg42
F0.0
sg43
F2.19
sg44
F51.33
sg45
F2.24
sg46
F1.09
sg47
F1.0
sg48
F0.32
sg49
F6.92
sg50
F561.17
sg51
F161.8
sg52
F6.02
sg53
F2.4
sg54
F0.89
sg55
F83.09
sg56
F13.86
sg57
F10.98
sg58
F31.57
sg59
F3.31
sg60
F221.12
sg61
F12.05
sg62
F520.99
sg63
F51.33
ssg64
g65
sg66
(lp272
S'Organic vegetable stock'
p273
aS'white cooking wine'
p274
aS'olive oil'
p275
aS'yellow onion'
p276
aS'garlic'
p277
aS'celery'
p278
aS'brown rice'
p279
aS'maitake mushrooms'
p280
aS'porcini mushrooms'
p281
aS'shittake mushrooms'
p282
aS'crimini mushrooms'
p283
aS'thyme'
p284
aS'parsley'
p285
aS'lemon juice'
p286
aS'nutritional yeast'
p287
aS'white beans'
p288
aS'cashews'
p289
aS'water'
p290
aS'sea salt'
p291
asg91
I0
sg92
g65
sg93
S'Wild Mushroom Risotto (GF)'
p292
sba(imodel
Meal
p293
(dp294
g3
(dp295
g5
F0.0
sg6
F158.56
sg7
F341.21
sg8
F0.0
sg9
F0.51
sg10
F338.13
sg11
F20.87
sg12
F0.48
sg13
F10.78
sg14
F0.92
sg15
F0.42
sg16
F2.38
sg17
F0.0
sg18
F70.91
sg19
F220.74
sg20
F1.78
sg21
F0.24
sg22
F766.2
sg23
F0.05
sg24
F43.45
sg25
F0.77
sg26
F1.31
sg27
F0.03
sg28
F0.0
sg29
F1991.56
sg30
F1.41
sg31
F0.0
sg32
F7.94
sg33
F12.69
sg34
F0.0
sg35
F22.78
sg36
F1.26
sg37
F3.6
sg38
F2.07
sg39
F0.58
sg40
F50.43
sg41
F441.48
sg42
F0.09
sg43
F0.68
sg44
F259.52
sg45
F4.71
sg46
F2.02
sg47
F1.0
sg48
F1.29
sg49
F7.58
sg50
F346.92
sg51
F198.47
sg52
F4.13
sg53
F5.82
sg54
F0.35
sg55
F50.84
sg56
F12.48
sg57
F12.59
sg58
F133.93
sg59
F5.69
sg60
F4414.79
sg61
F19.54
sg62
F1345.12
sg63
F246.35
ssg64
g65
sg66
(lp296
S'kidney beans, all types, dry'
p297
aS'black beans, dry'
p298
aS'pinto beans, dry'
p299
aS'tomatoes, crushed, canned'
p300
aS'zucchini, fresh, with skin'
p301
aS'onion, yellow, fresh, chopped'
p302
aS'garlic, minced'
p303
aS'tempeh'
p304
aS'cinnamon, ground'
p305
aS'chili powder, Eagle, food service'
p306
aS'cocoa powder, natural'
p307
aS'cumin seeds, ground'
p308
aS'oregano, dried, leaves'
p309
aS'coriander seed, ground'
p310
aS'juice, lime, fresh'
p311
aS'spinach, baby, fresh'
p312
aS'mushrooms, crimini, fresh'
p313
aS'stock, vegetable, organic'
p314
aS'oil, olive'
p315
aS'bell pepper'
p316
aS'carrots, fresh, chopped'
p317
aS'black pepper, ground'
p318
aS'sea salt'
p319
asg91
I0
sg92
g65
sg93
S'Lunchtime Chili (GF)'
p320
sba(imodel
Meal
p321
(dp322
g3
(dp323
g5
F0.0
sg6
F162.64
sg7
F319.82
sg8
F0.0
sg9
F0.6599999999999999
sg10
F435.57
sg11
F34.510000000000005
sg12
F0.49
sg13
F16.45
sg14
F0.64
sg15
F0.25
sg16
F2.2199999999999998
sg17
F0.0
sg18
F61.54
sg19
F875.77
sg20
F0.61
sg21
F0.13
sg22
F616.0999999999999
sg23
F0.0
sg24
F26.09
sg25
F0.0
sg26
F3.51
sg27
F0.0
sg28
F0.0
sg29
F10494.439999999999
sg30
F1.5899999999999999
sg31
F0.0
sg32
F6.9
sg33
F14.3
sg34
F0.0
sg35
F34.09
sg36
F2.28
sg37
F2.8200000000000003
sg38
F3.08
sg39
F3.9800000000000004
sg40
F94.24
sg41
F1751.54
sg42
F0.0
sg43
F1.8599999999999999
sg44
F249.47
sg45
F19.98
sg46
F0.74
sg47
F2.0
sg48
F1.71
sg49
F4.949999999999999
sg50
F453.08
sg51
F342.64
sg52
F2.76
sg53
F3.62
sg54
F0.99
sg55
F84.22
sg56
F7.359999999999999
sg57
F22.049999999999997
sg58
F142.89999999999998
sg59
F4.73
sg60
F17515.47
sg61
F12.69
sg62
F1671.94
sg63
F249.47
ssg64
g65
sg66
(lp324
S'eggplant, fresh, cubes'
p325
aS'onion, white, fresh, chopped'
p326
aS'garlic, minced'
p327
aS'chili peppers, red, crushed flakes'
p328
aS'beans, small white, dry'
p329
aS'parsley, fresh, sprigs'
p330
aS'flax seeds, brown, ground'
p331
aS'rice, brown, puffed'
p332
aS'black pepper, ground'
p333
aS'lemon juice, fresh'
p334
aS'oil, olive'
p335
aS'sea salt'
p336
aS'sweet potatoes, fresh, cubes'
p337
aS'oil, coconut'
p338
aS'oregano, ground'
p339
aS'chili powder, Eagle, food service'
p340
aS'paprika, ground'
p341
aS'garlic powder'
p342
aS'parsnips, fresh, sliced'
p343
asg91
I0
sg92
g65
sg93
S"Rachel's Veggie Burger with Roasted Sweet potato and parsnip fries (GF)"
p344
sba(imodel
Meal
p345
(dp346
g3
(dp347
g5
F0.0
sg6
F334.75
sg7
F239.62
sg8
F0.08
sg9
F0.36
sg10
F551.98
sg11
F58.589999999999996
sg12
F0.32999999999999996
sg13
F6.09
sg14
F0.35
sg15
F0.060000000000000005
sg16
F1.64
sg17
F0.0
sg18
F203.65
sg19
F557.97
sg20
F0.97
sg21
F0.05
sg22
F762.9399999999999
sg23
F0.0
sg24
F20.869999999999997
sg25
F0.0
sg26
F0.4
sg27
F0.0
sg28
F0.0
sg29
F101.32
sg30
F11.85
sg31
F0.0
sg32
F22.68
sg33
F106.67
sg34
F0.0
sg35
F47.160000000000004
sg36
F0.73
sg37
F4.66
sg38
F0.8200000000000001
sg39
F0.2
sg40
F813.51
sg41
F1115.6
sg42
F0.22
sg43
F0.58
sg44
F340.28999999999996
sg45
F0.0
sg46
F4.53
sg47
F2.0
sg48
F3.9299999999999997
sg49
F5.29
sg50
F609.99
sg51
F256.26
sg52
F4.1
sg53
F0.01
sg54
F0.0
sg55
F66.17
sg56
F10.32
sg57
F10.9
sg58
F217.57
sg59
F12.41
sg60
F11155.97
sg61
F23.53
sg62
F344.22
sg63
F22.240000000000002
ssg64
g65
sg66
(lp348
S'turmeric, ground'
p349
aS'cayenne chili pepper, dried, ground'
p350
aS'spinach, baby, fresh'
p351
aS'garlic cloves, fresh'
p352
aS'ginger root, fresh'
p353
aS'serrano peppers, fresh'
p354
aS'spice blend, garam masala'
p355
aS'coriander, ground leaves'
p356
aS'cumin seeds, ground'
p357
aS'coconut milk, canned'
p358
aS'tofu, extra firm, Nasoya'
p359
aS'oil, olive'
p360
aS'onion, yellow, fresh'
p361
aS'sea salt'
p362
aS'cardamom, ground'
p363
aS'rice, brown, dry, long grain'
p364
aS'water, tap'
p365
asg91
I0
sg92
g65
sg93
S'Saag no Paneer with Cardamom Rice (GF)'
p366
sba(imodel
Meal
p367
(dp368
g3
(dp369
g5
F0.0
sg6
F65.65
sg7
F13.07
sg8
F0.0
sg9
F0.04
sg10
F294.42
sg11
F7.17
sg12
F0.22
sg13
F6.38
sg14
F0.03
sg15
F0.05
sg16
F0.1
sg17
F0.0
sg18
F27.09
sg19
F175.71
sg20
F0.01
sg21
F0.0
sg22
F766.8
sg23
F0.0
sg24
F2.09
sg25
F0.0
sg26
F1.06
sg27
F0.0
sg28
F0.0
sg29
F255.56
sg30
F0.26
sg31
F0.0
sg32
F3.07
sg33
F2.36
sg34
F0.0
sg35
F31.03
sg36
F0.16
sg37
F0.97
sg38
F0.01
sg39
F0.0
sg40
F1.63
sg41
F351.43
sg42
F0.0
sg43
F0.76
sg44
F4.54
sg45
F1.08
sg46
F0.2
sg47
F1.0
sg48
F0.04
sg49
F0.32
sg50
F370.87
sg51
F276.3
sg52
F0.27
sg53
F1.1
sg54
F0.43
sg55
F48.81
sg56
F0.11
sg57
F11.34
sg58
F4.5
sg59
F4.4
sg60
F3514.26
sg61
F19.27
sg62
F790.64
sg63
F4.54
ssg64
g65
sg66
(lp370
S'olive oil'
p371
aS'white onion'
p372
aS'Yukon Gold potatoes'
p373
aS'carrots'
p374
aS'garlic'
p375
aS'red lentils'
p376
aS'Organic vegetable stock'
p377
aS'lemon juice'
p378
aS'coriander'
p379
aS'cumin'
p380
aS'sea salt'
p381
asg91
I0
sg92
g65
sg93
S'Lemony Red Lentil Soup'
p382
sba(imodel
Meal
p383
(dp384
g3
(dp385
g5
F0.0
sg6
F87.58
sg7
F141.59
sg8
F0.01
sg9
F1.28
sg10
F521.92
sg11
F89.13
sg12
F1.99
sg13
F5.98
sg14
F0.15
sg15
F1.61
sg16
F1.22
sg17
F0.0
sg18
F91.83
sg19
F128.29
sg20
F0.38
sg21
F0.1
sg22
F764.5
sg23
F2.63
sg24
F52.33
sg25
F0.0
sg26
F2.19
sg27
F0.0
sg28
F0.0
sg29
F557.86
sg30
F1.5
sg31
F0.0
sg32
F10.25
sg33
F13.54
sg34
F0.0
sg35
F10.49
sg36
F1.12
sg37
F5.37
sg38
F0.49
sg39
F0.9
sg40
F28.23
sg41
F256.57
sg42
F0.09
sg43
F3.49
sg44
F101.56
sg45
F8.39
sg46
F1.42
sg47
F2.0
sg48
F0.63
sg49
F9.32
sg50
F381.63
sg51
F166.42
sg52
F8.44
sg53
F1.83
sg54
F0.0
sg55
F75.75
sg56
F4.22
sg57
F17.28
sg58
F42.88
sg59
F7.0
sg60
F2565.72
sg61
F31.130000000000003
sg62
F554.56
sg63
F101.56
ssg64
g65
sg66
(lp386
S'Green Lentil Penne'
p387
aS'black pepper, ground'
p388
aS'broccoli florets, fresh'
p389
aS'broth, vegetable, low sodium'
p390
aS'cashews, raw, whole'
p391
aS'water, tap'
p392
aS'cauliflower florets, fresh'
p393
aS'garlic cloves, fresh'
p394
aS'garlic powder'
p395
aS'lemon juice, fresh'
p396
aS'nutritional yeast'
p397
aS'oil, olive'
p398
aS'onion powder'
p399
aS'peas, green, frozen'
p400
aS'sea salt'
p401
asg91
I0
sg92
g65
sg93
S'Cauliflower Alfredo with Green Lentil Penne (GF)'
p402
sba(imodel
Meal
p403
(dp404
g3
(dp405
g5
F0.0
sg6
F219.47
sg7
F396.12
sg8
F0.0
sg9
F0.55
sg10
F452.04
sg11
F23.13
sg12
F1.16
sg13
F6.42
sg14
F1.21
sg15
F1.12
sg16
F3.98
sg17
F74.1
sg18
F89.33
sg19
F128.73
sg20
F0.75
sg21
F0.22
sg22
F767.0
sg23
F0.61
sg24
F0.33
sg25
F3.85
sg26
F0.03
sg27
F0.13
sg28
F0.0
sg29
F224.16
sg30
F1.9000000000000001
sg31
F0.0
sg32
F9.989999999999998
sg33
F17.130000000000003
sg34
F0.0
sg35
F48.52
sg36
F2.6199999999999997
sg37
F4.36
sg38
F1.38
sg39
F1.38
sg40
F169.48
sg41
F257.46999999999997
sg42
F0.0
sg43
F0.38
sg44
F401.78000000000003
sg45
F0.03
sg46
F2.06
sg47
F2.0
sg48
F1.22
sg49
F13.33
sg50
F348.83849499999997
sg51
F227.33999999999997
sg52
F9.32
sg53
F0.5700000000000001
sg54
F0.0
sg55
F71.2
sg56
F35.760000000000005
sg57
F16.26
sg58
F149.99
sg59
F6.46
sg60
F2574.67
sg61
F23.33
sg62
F1610.57
sg63
F325.46000000000004
ssg64
g65
sg66
(lp406
S'oil, olive'
p407
aS'garlic, minced'
p408
aS'mushrooms, crimini, fresh'
p409
aS'chili peppers, powder'
p410
aS'spinach, baby, fresh'
p411
aS'jalapeno peppers, fresh'
p412
aS'lemon juice, fresh'
p413
aS'cilantro, fresh, leaves'
p414
aS'black beans, dry'
p415
aS'miso'
p416
aS'nutritional yeast'
p417
aS'tortilla, 100% whole wheat, medium'
p418
aS'sea salt'
p419
aS'cumin seeds, ground'
p420
aS'avocado, California, fresh'
p421
aS'sea salt, california'
p422
aS'juice, lime, fresh'
p423
aS'shallots, fresh, chopped'
p424
aS'tomatillos, crushed'
p425
asg91
I0
sg92
g65
sg93
S'Lunchtime Rita with Green Salsa'
p426
sba(imodel
Meal
p427
(dp428
g3
(dp429
g5
F0.0
sg6
F265.13
sg7
F343.85
sg8
F0.01
sg9
F0.5700000000000001
sg10
F583.0
sg11
F81.02000000000001
sg12
F0.45
sg13
F7.260000000000001
sg14
F1.0
sg15
F0.19
sg16
F2.21
sg17
F0.0
sg18
F215.56
sg19
F499.93
sg20
F0.86
sg21
F0.12000000000000001
sg22
F767.64
sg23
F0.0
sg24
F28.8
sg25
F0.0
sg26
F1.3599999999999999
sg27
F0.0
sg28
F0.0
sg29
F4404.46
sg30
F16.05
sg31
F0.0
sg32
F23.95
sg33
F144.46
sg34
F0.0
sg35
F50.53
sg36
F1.23
sg37
F2.36
sg38
F1.17
sg39
F0.83
sg40
F284.67
sg41
F999.86
sg42
F0.24
sg43
F2.2
sg44
F110.5
sg45
F6.26
sg46
F3.6799999999999997
sg47
F2.0
sg48
F2.79
sg49
F7.32
sg50
F444.5
sg51
F298.66999999999996
sg52
F5.5
sg53
F1.66
sg54
F0.79
sg55
F74.61
sg56
F12.0
sg57
F8.82
sg58
F142.56
sg59
F6.38
sg60
F9998.59
sg61
F19.88
sg62
F845.3699999999999
sg63
F110.5
ssg64
g65
sg66
(lp430
S'oil, coconut'
p431
aS'onion, white, fresh, chopped'
p432
aS'ginger root, fresh, 1" sliced'
p433
aS'garlic, minced'
p434
aS'carrots, fresh'
p435
aS'peas, snow, fresh'
p436
aS'broccoli florets, fresh'
p437
aS'coconut milk, canned'
p438
aS'water, generic'
p439
aS'kale, fresh, chopped'
p440
aS'vinegar, brown rice, organic'
p441
aS'soy sauce, tamari'
p442
aS'tofu, super firm, Nasoya, cubed'
p443
aS'arrowroot flour'
p444
aS'cilantro, fresh, leaves'
p445
aS'curry paste, green'
p446
aS'sweet potatoes, fresh, cubes'
p447
aS'sea salt'
p448
aS'rice, brown, dry, long grain'
p449
aS'lemongrass, fresh, chopped'
p450
aS'water, tap'
p451
asg91
I0
sg92
g65
sg93
S'Thai Coconut Green Curry with Lemongrass Rice (GF)'
p452
sba(imodel
Meal
p453
(dp454
g3
(dp455
g5
F0.0
sg6
F140.60000000000002
sg7
F221.28
sg8
F0.09
sg9
F1.83
sg10
F396.72
sg11
F72.41
sg12
F2.92
sg13
F10.83
sg14
F0.55
sg15
F2.3
sg16
F2.05
sg17
F0.0
sg18
F142.46
sg19
F411.02
sg20
F1.26
sg21
F0.07
sg22
F762.8
sg23
F3.9
sg24
F14.57
sg25
F0.0
sg26
F1.46
sg27
F0.0
sg28
F0.0
sg29
F4761.66
sg30
F1.6500000000000001
sg31
F0.0
sg32
F16.05
sg33
F14.879999999999999
sg34
F0.0
sg35
F25.37
sg36
F0.97
sg37
F4.27
sg38
F5.04
sg39
F0.07
sg40
F13.86
sg41
F822.05
sg42
F0.14
sg43
F4.12
sg44
F217.83
sg45
F10.440000000000001
sg46
F2.0
sg47
F2.0
sg48
F1.11
sg49
F12.530000000000001
sg50
F402.8
sg51
F292.26
sg52
F12.01
sg53
F3.13
sg54
F0.53
sg55
F49.31
sg56
F4.17
sg57
F11.59
sg58
F150.39000000000001
sg59
F4.32
sg60
F8220.48
sg61
F16.490000000000002
sg62
F867.24
sg63
F217.83
ssg64
g65
sg66
(lp456
S'yellow bell pepper'
p457
aS'red bell pepper'
p458
aS'olive oil '
p459
aS'eggplant'
p460
aS'black pepper'
p461
aS'sweet potatoes'
p462
aS'zucchini'
p463
aS'white onion'
p464
aS'bay leaf'
p465
aS'thyme'
p466
aS'cherry tomatoes'
p467
aS'chickpea flour'
p468
aS'water'
p469
aS'nutritional yeast'
p470
aS'baking powde'
p471
aS'turmeric'
p472
aS'almond flour'
p473
aS'sea salt'
p474
aS'bell pepper'
p475
aS'shallots'
p476
aS'garlic'
p477
aS'lime juice'
p478
aS'olive oil'
p479
asg91
I0
sg92
g65
sg93
S'Veggie Brunch Pie with Roasted Red Pepper Sauce (GF)'
p480
sba(imodel
Meal
p481
(dp482
g3
(dp483
g5
F0.0
sg6
F78.45
sg7
F184.66
sg8
F0.05
sg9
F0.29
sg10
F592.52
sg11
F18.72
sg12
F0.35
sg13
F14.31
sg14
F0.55
sg15
F0.39
sg16
F1.88
sg17
F0.0
sg18
F248.34
sg19
F47.18
sg20
F1.11
sg21
F0.05
sg22
F766.2
sg23
F0.0
sg24
F98.34
sg25
F1446.79
sg26
F0.93
sg27
F36.2
sg28
F0.0
sg29
F12.35
sg30
F4.1
sg31
F0.0
sg32
F27.63
sg33
F36.87
sg34
F0.0
sg35
F37.47
sg36
F0.88
sg37
F14.47
sg38
F0.57
sg39
F1.3
sg40
F58.56
sg41
F94.36
sg42
F0.0
sg43
F1.77
sg44
F222.96
sg45
F2.54
sg46
F4.72
sg47
F2.0
sg48
F6.56
sg49
F10.86
sg50
F417.99
sg51
F244.83
sg52
F9.0
sg53
F3.89
sg54
F1.01
sg55
F64.28999999999999
sg56
F3.09
sg57
F12.51
sg58
F50.1
sg59
F5.53
sg60
F943.6
sg61
F20.56
sg62
F549.48
sg63
F201.62
ssg64
g65
sg66
(lp484
S'tortilla, yellow corn, 6"'
p485
aS'chickpeas, dry'
p486
aS'mushrooms, maitake, fresh, diced'
p487
aS'poblano peppers, fresh, sliced'
p488
aS'onion, white, fresh, chopped'
p489
aS'garlic, minced'
p490
aS'spinach, baby, fresh'
p491
aS'oil, olive'
p492
aS'water, tap'
p493
aS'cashews, raw, whole'
p494
aS'sea salt'
p495
asg91
I0
sg92
g65
sg93
S'Chickpea and Maitake Tacos with Corn Tortillas (GF)'
p496
sba(imodel
Meal
p497
(dp498
g3
(dp499
g5
F0.0
sg6
F122.5
sg7
F132.75
sg8
F0.01
sg9
F0.38
sg10
F323.85
sg11
F179.44
sg12
F0.14
sg13
F12.1
sg14
F0.1
sg15
F0.22
sg16
F0.81
sg17
F0.0
sg18
F175.85
sg19
F264.18
sg20
F0.07
sg21
F0.2
sg22
F762.7
sg23
F0.0
sg24
F37.15
sg25
F0.0
sg26
F0.0
sg27
F0.0
sg28
F0.0
sg29
F144.32
sg30
F3.17
sg31
F0.0
sg32
F19.97
sg33
F28.53
sg34
F0.0
sg35
F7.71
sg36
F1.34
sg37
F12.41
sg38
F0.07
sg39
F0.97
sg40
F13.56
sg41
F528.35
sg42
F0.06
sg43
F1.42
sg44
F150.36
sg45
F11.41
sg46
F3.25
sg47
F1.0
sg48
F0.51
sg49
F2.33
sg50
F601.72
sg51
F235.2
sg52
F1.35
sg53
F1.6
sg54
F0.0
sg55
F28.32
sg56
F4.85
sg57
F8.4
sg58
F49.46
sg59
F3.41
sg60
F5283.51
sg61
F12.12
sg62
F756.88
sg63
F150.36
ssg64
g65
sg66
(lp500
S'oil, olive, pure'
p501
aS'onion, yellow, fresh'
p502
aS'cauliflower florets, fresh'
p503
aS'broccoli florets, fresh'
p504
aS'carrots, fresh'
p505
aS'stock, vegetable, organic'
p506
aS'mustard, dijon'
p507
aS'paprika, ground'
p508
aS'cashews, raw, whole'
p509
aS'water, tap'
p510
aS'black pepper, ground'
p511
aS'sea salt'
p512
asg91
I0
sg92
g65
sg93
S'Creamy Broccoli Soup (GF)'
p513
sba(imodel
Meal
p514
(dp515
g3
(dp516
g5
F2.31
sg6
F150.91
sg7
F457.22
sg8
F0.04
sg9
F0.49
sg10
F484.93
sg11
F55.48
sg12
F0.28
sg13
F7.07
sg14
F0.93
sg15
F0.63
sg16
F5.26
sg17
F0.0
sg18
F139.81
sg19
F380.1
sg20
F4.29
sg21
F0.6
sg22
F770.6
sg23
F0.08
sg24
F55.98
sg25
F2.51
sg26
F0.32
sg27
F0.08
sg28
F0.0
sg29
F3733.98
sg30
F1.7
sg31
F0.0
sg32
F15.67
sg33
F15.29
sg34
F0.0
sg35
F43.43
sg36
F2.12
sg37
F8.11
sg38
F1.8
sg39
F0.25
sg40
F48.68
sg41
F760.21
sg42
F0.0
sg43
F0.0
sg44
F118.33
sg45
F3.38
sg46
F4.96
sg47
F1.0
sg48
F1.84
sg49
F10.44
sg50
F310.16
sg51
F165.54
sg52
F7.3
sg53
F0.01
sg54
F0.0
sg55
F69.96
sg56
F25.35
sg57
F9.43
sg58
F159.38
sg59
F5.4
sg60
F7602.09
sg61
F17.03
sg62
F967.74
sg63
F118.33
ssg64
g65
sg66
(lp517
S'porcini mushrooms'
p518
aS'wild rice'
p519
aS'quinoa'
p520
aS'kale'
p521
aS'olive oil '
p522
aS'shallots'
p523
aS'garlic'
p524
aS'crimini mushrooms'
p525
aS'celery'
p526
aS'carrots'
p527
aS'white cooking wine'
p528
aS'thyme'
p529
aS'sage'
p530
aS'parsley'
p531
aS'pecans'
p532
aS'walnut oil'
p533
aS'sea salt'
p534
asg91
I0
sg92
g65
sg93
S'"Not-so-Stuffing" Quinoa Salad'
p535
sba(imodel
Meal
p536
(dp537
g3
(dp538
g5
F0.0
sg6
F203.19
sg7
F213.95
sg8
F0.01
sg9
F0.58
sg10
F521.4399999999999
sg11
F106.04
sg12
F0.51
sg13
F9.549999999999999
sg14
F0.99
sg15
F0.35
sg16
F1.9100000000000001
sg17
F0.0
sg18
F228.81
sg19
F229.23999999999998
sg20
F2.79
sg21
F0.31
sg22
F767.72
sg23
F0.24
sg24
F49.58
sg25
F0.0
sg26
F0.27
sg27
F0.0
sg28
F0.0
sg29
F2701.75
sg30
F3.29
sg31
F0.0
sg32
F25.72
sg33
F29.59
sg34
F0.0
sg35
F30.86
sg36
F1.1300000000000001
sg37
F14.18
sg38
F4.67
sg39
F4.07
sg40
F414.23
sg41
F458.24
sg42
F0.08
sg43
F0.46
sg44
F328.65
sg45
F7.22
sg46
F5.67
sg47
F2.0
sg48
F8.579999999999998
sg49
F4.14
sg50
F333.65000000000003
sg51
F210.47
sg52
F2.46
sg53
F1.65
sg54
F0.0
sg55
F54.489999999999995
sg56
F2.5599999999999996
sg57
F14.03
sg58
F81.24000000000001
sg59
F5.84
sg60
F4582.4
sg61
F23.38
sg62
F967.8900000000001
sg63
F328.65
ssg64
g65
sg66
(lp539
S'chickpeas, dry'
p540
aS'parsnips, fresh, sliced'
p541
aS'kale, fresh, chopped'
p542
aS'brussels sprouts, fresh'
p543
aS'garlic cloves, fresh'
p544
aS'miso'
p545
aS'lemon juice, fresh'
p546
aS'vinegar, balsamic'
p547
aS'mustard, dijon'
p548
aS'plum paste, pickled, umeboshi'
p549
aS'soy sauce, tamari'
p550
aS'tofu, extra firm, Nasoya'
p551
aS'oil, olive'
p552
aS'seaweed, nori, fresh'
p553
aS'black pepper, ground'
p554
aS'water, tap'
p555
aS'sea salt'
p556
aS'bread, sprouted whole grain & seed, Ezekiel 4:9'
p557
aS'garlic powder'
p558
aS'nutritional yeast'
p559
aS'basil, dried, leaves'
p560
aS'oregano, dried, leaves'
p561
asg91
I0
sg92
g65
sg93
S'Chickpea Caesar Salad with Herbed Garlic Croutons'
p562
sba(imodel
Meal
p563
(dp564
g3
(dp565
g5
F0.0
sg6
F161.01
sg7
F321.46
sg8
F0.02
sg9
F0.42
sg10
F318.45
sg11
F17.93
sg12
F0.53
sg13
F8.51
sg14
F0.5
sg15
F0.2
sg16
F2.06
sg17
F0.0
sg18
F25.09
sg19
F317.66
sg20
F0.43
sg21
F0.17
sg22
F770.0
sg23
F0.0
sg24
F10.39
sg25
F0.0
sg26
F1.46
sg27
F0.0
sg28
F0.0
sg29
F2422.5
sg30
F0.46
sg31
F0.0
sg32
F2.82
sg33
F4.16
sg34
F0.0
sg35
F4.3
sg36
F0.76
sg37
F1.23
sg38
F1.17
sg39
F4.95
sg40
F103.65
sg41
F635.32
sg42
F0.13
sg43
F3.56
sg44
F303.93
sg45
F3.48
sg46
F0.59
sg47
F1.0
sg48
F1.21
sg49
F4.58
sg50
F483.05
sg51
F121.8
sg52
F1.7
sg53
F3.59
sg54
F0.84
sg55
F57.77
sg56
F8.76
sg57
F20.98
sg58
F147.75
sg59
F6.99
sg60
F6353.2
sg61
F17.16
sg62
F1447.86
sg63
F265.81
ssg64
g65
sg66
(lp566
S'oil, olive'
p567
aS'onion, white, fresh, chopped'
p568
aS'garlic, minced'
p569
aS'carrots, fresh, chopped'
p570
aS'cumin seeds, ground'
p571
aS'tomatoes, crushed, canned'
p572
aS'tomato sauce, canned'
p573
aS'broth, vegetable, organic'
p574
aS'bay leaf, dried'
p575
aS'sage, fresh'
p576
aS'spinach, baby, fresh'
p577
aS'lemon juice, fresh'
p578
aS'black pepper, ground'
p579
aS'beans, small white, dry'
p580
aS'sea salt'
p581
asg91
I0
sg92
g65
sg93
S'Tomato & Cannellini Bean Soup (GF)'
p582
sba(imodel
Meal
p583
(dp584
g3
(dp585
g5
F0.0
sg6
F156.79
sg7
F88.25
sg8
F0.01
sg9
F0.41000000000000003
sg10
F437.22
sg11
F45.12
sg12
F0.3
sg13
F9.98
sg14
F0.34
sg15
F0.13
sg16
F1.51
sg17
F0.0
sg18
F95.75
sg19
F576.0500000000001
sg20
F0.07
sg21
F0.03
sg22
F766.9
sg23
F0.0
sg24
F18.959999999999997
sg25
F0.0
sg26
F2.2699999999999996
sg27
F0.0
sg28
F0.0
sg29
F6006.64
sg30
F2.06
sg31
F0.0
sg32
F10.64
sg33
F18.51
sg34
F0.0
sg35
F15.76
sg36
F1.09
sg37
F3.76
sg38
F1.3399999999999999
sg39
F0.17
sg40
F98.3
sg41
F1146.6000000000001
sg42
F0.0
sg43
F2.12
sg44
F107.19999999999999
sg45
F7.48
sg46
F3.97
sg47
F2.0
sg48
F1.73
sg49
F3.48
sg50
F400.85349499999995
sg51
F294.59
sg52
F0.97
sg53
F4.0200000000000005
sg54
F1.44
sg55
F66.05
sg56
F21.5
sg57
F12.68
sg58
F116.01
sg59
F5.16
sg60
F11465.990000000002
sg61
F22.349999999999998
sg62
F673.38
sg63
F82.78999999999999
ssg64
g65
sg66
(lp586
g420
ag421
aS'garlic, minced'
p587
ag422
aS'cilantro, fresh, leaves'
p588
ag423
aS'jalapeno peppers, fresh'
p589
ag424
ag425
aS'sea salt'
p590
aS'oil, coconut'
p591
aS'sweet potatoes, fresh, cubes'
p592
aS'black beans, dry'
p593
aS'onion, yellow, fresh, chopped'
p594
aS'chili powder, Eagle, food service'
p595
aS'tofu, extra firm, Nasoya'
p596
aS'spinach, baby, fresh'
p597
aS'bell pepper, red, fresh, chopped'
p598
aS'turmeric, ground'
p599
aS'Alvarado Street Bakery Sprouted Whole Wheat Tortilla'
p600
asg91
I0
sg92
g65
sg93
S'Hippie Brunch Burrito with Green Salsa'
p601
sba(imodel
Meal
p602
(dp603
g3
(dp604
g5
F4.46
sg6
F109.77
sg7
F76.12
sg8
F0.0
sg9
F0.34
sg10
F425.39
sg11
F19.54
sg12
F0.52
sg13
F10.01
sg14
F0.1
sg15
F0.43
sg16
F0.51
sg17
F0.0
sg18
F82.87
sg19
F63.89
sg20
F0.55
sg21
F0.1
sg22
F761.7
sg23
F0.66
sg24
F13.16
sg25
F0.0
sg26
F0.4
sg27
F0.0
sg28
F0.0
sg29
F686.49
sg30
F1.02
sg31
F0.0
sg32
F9.29
sg33
F9.18
sg34
F0.0
sg35
F51.21
sg36
F0.33
sg37
F4.46
sg38
F1.06
sg39
F0.35
sg40
F63.73
sg41
F127.79
sg63
F68.02
sg43
F1.89
sg44
F68.02
sg45
F4.21
sg46
F0.96
sg47
F1.0
sg48
F0.3
sg49
F2.53
sg50
F593.06
sg51
F125.36
sg52
F2.24
sg53
F1.36
sg54
F0.78
sg55
F73.41
sg56
F1.22
sg57
F10.38
sg58
F35.55
sg59
F2.63
sg60
F1277.86
sg61
F9.89
sg62
F552.57
ssg64
g65
sg66
(lp605
S'wine, cooking, white'
p606
aS'onion, white, fresh, chopped'
p607
aS'celery, fresh, stalk'
p608
aS'garlic, minced'
p609
aS'onion, cippolini, fresh, peeled, medium'
p610
aS'fennel, fresh, bulb'
p611
aS'arugula, fresh, chopped'
p612
aS'lemon juice, fresh'
p613
aS'oil, olive'
p614
aS'nutritional yeast'
p615
aS'broth, vegetable'
p616
aS'beans, small white, dry'
p617
aS'cashews, raw, whole'
p618
aS'water, tap'
p619
aS'rice, brown, dry, short grain'
p620
aS'Euphebe Organic Vegetable Stock'
p621
aS'sea salt, california'
p622
asg91
I0
sg92
g65
sg93
S'Fennel & Arugula Farrotto (GF)'
p623
sba(imodel
Meal
p624
(dp625
g3
(dp626
g5
F0.0
sg6
F39.14
sg7
F41.7
sg8
F0.02
sg9
F0.12
sg10
F187.17
sg11
F24.15
sg12
F0.06
sg13
F6.54
sg14
F0.14
sg15
F0.05
sg16
F0.45
sg17
F0.0
sg18
F72.6
sg19
F219.85
sg20
F0.6
sg21
F0.07
sg22
F766.0
sg23
F0.0
sg24
F9.31
sg25
F0.0
sg26
F0.73
sg27
F0.0
sg28
F0.0
sg29
F4180.53
sg30
F0.79
sg31
F0.0
sg32
F8.34
sg33
F7.09
sg34
F0.0
sg35
F10.68
sg36
F0.14
sg37
F3.82
sg38
F1.12
sg39
F0.55
sg40
F17.25
sg41
F439.69
sg42
F0.07
sg43
F0.56
sg44
F41.48
sg45
F1.57
sg46
F0.68
sg47
F1.0
sg48
F0.26
sg49
F0.81
sg50
F282.04
sg51
F160.21
sg52
F0.35
sg53
F0.67
sg54
F0.29
sg55
F23.41
sg56
F1.67
sg57
F6.2
sg58
F23.69
sg59
F1.23
sg60
F4396.92
sg61
F5.2
sg62
F250.04
sg63
F41.48
ssg64
g65
sg66
(lp627
S'white onion'
p628
aS'tomatoes'
p629
aS'kalamata olives'
p630
aS'kalamata olive juice'
p631
aS'capers'
p632
aS'caper juice'
p633
aS'garlic'
p634
aS'olive oil'
p635
aS'chili pepper flakes'
p636
aS'parsley'
p637
aS'white beans'
p638
aS'seaweed'
p639
aS'red bell pepper'
p640
aS'carrots'
p641
aS'water'
p642
aS'sea salt'
p643
asg91
I0
sg92
g65
sg93
S'Penne w/ Puttanesca'
p644
sba(imodel
Meal
p645
(dp646
g3
(dp647
g5
F0.0
sg6
F209.09
sg7
F374.44000000000005
sg8
F0.03
sg9
F1.56
sg10
F603.33
sg11
F97.86
sg12
F1.9300000000000002
sg13
F11.82
sg14
F0.93
sg15
F1.5
sg16
F3.0599999999999996
sg17
F0.0
sg18
F267.11
sg19
F829.97
sg20
F3.23
sg21
F0.35
sg22
F768.14
sg23
F2.09
sg24
F34.52
sg25
F6.63
sg26
F3.76
sg27
F0.15
sg28
F0.0
sg29
F9932.17
sg30
F4.08
sg31
F0.0
sg32
F29.729999999999997
sg33
F36.72
sg34
F0.0
sg35
F26.990000000000002
sg36
F2.07
sg37
F17.23
sg38
F1.8299999999999998
sg39
F4.26
sg40
F270.15
sg41
F1659.94
sg42
F0.11
sg43
F2.72
sg44
F210.65
sg45
F15.58
sg46
F6.13
sg47
F2.0
sg48
F1.96
sg49
F12.040000000000001
sg50
F402.7
sg51
F271.87
sg52
F9.19
sg53
F4.93
sg54
F0.57
sg55
F68.33
sg56
F9.68
sg57
F18.82
sg58
F143.11
sg59
F7.74
sg60
F16599.4
sg61
F22.130000000000003
sg62
F1483.78
sg63
F210.65
ssg64
g65
sg66
(lp648
S'brussels sprouts'
p649
aS'shiitake mushrooms'
p650
aS'sweet potatoes'
p651
aS'kale'
p652
aS'garlic '
p653
aS'white onion'
p654
aS'white beans'
p655
aS'Gluten free tamari'
p656
aS'olive oil'
p657
aS'black pepper'
p658
aS'rosemary'
p659
aS'cashews'
p660
aS'water'
p661
aS'lemon juice'
p662
aS'nutritional yeast'
p663
aS'apple cider vinegar'
p664
aS'nutmeg'
p665
aS'sea salt'
p666
aS'pecans'
p667
asg91
I0
sg92
g65
sg93
S'Brussels Sprouts Gratin with Toasted Pecans (GF)'
p668
sba(imodel
Meal
p669
(dp670
g3
(dp671
g5
F2.97
sg6
F100.56
sg7
F160.04
sg8
F0.06
sg9
F0.24
sg10
F509.83
sg11
F12.06
sg12
F0.11
sg13
F8.63
sg14
F0.44
sg15
F0.26
sg16
F0.88
sg17
F0.0
sg18
F154.6
sg19
F62.61
sg20
F2.26
sg21
F0.15
sg22
F765.6
sg23
F0.05
sg24
F12.94
sg25
F0.4
sg26
F0.16
sg27
F0.01
sg28
F0.0
sg29
F91.16
sg30
F3.06
sg31
F0.0
sg32
F18.26
sg33
F27.54
sg34
F0.0
sg35
F5.09
sg36
F0.55
sg37
F9.3
sg38
F1.58
sg39
F0.0
sg40
F7.26
sg41
F125.23
sg42
F0.06
sg43
F0.53
sg44
F25.79
sg45
F0.75
sg46
F3.65
sg47
F2.0
sg48
F0.79
sg49
F4.18
sg50
F311.51
sg51
F195.65
sg52
F2.52
sg53
F3.54
sg54
F0.3
sg55
F62.4
sg56
F4.02
sg57
F8.48
sg58
F54.28
sg59
F3.68
sg60
F1252.26
sg61
F21.03
sg62
F563.65
sg63
F25.79
ssg64
g65
sg66
(lp672
S'oil, olive'
p673
aS'onion, yellow, fresh, chopped'
p674
aS'garlic, minced'
p675
aS'celery, fresh, stalk'
p676
aS'carrots, fresh'
p677
aS'tempeh'
p678
aS'mushrooms, crimini, fresh'
p679
aS'black pepper, ground'
p680
aS'nutmeg, ground'
p681
aS'tomatoes, crushed, canned'
p682
aS'tomato sauce'
p683
aS'wine, white, chardonnay'
p684
aS'cashews, raw, whole'
p685
aS'bay leaf, dried'
p686
aS'water, tap'
p687
aS'sea salt'
p688
aS'Spelt pasta'
p689
asg91
I0
sg92
g65
sg93
S'Marcella Inspired Bolognese with Spelt Fusilli'
p690
sba(imodel
Meal
p691
(dp692
g3
(dp693
g5
F0.0
sg6
F212.21
sg7
F303.84
sg8
F0.01
sg9
F0.51
sg10
F511.49
sg11
F64.52
sg12
F0.48
sg13
F11.35
sg14
F1.15
sg15
F0.21
sg16
F1.95
sg17
F0.0
sg18
F86.35
sg19
F591.85
sg20
F0.32
sg21
F0.21
sg22
F772.16
sg23
F0.0
sg24
F10.83
sg25
F0.0
sg26
F1.71
sg27
F0.0
sg28
F0.0
sg29
F6986.23
sg30
F5.27
sg31
F0.0
sg32
F9.59
sg33
F47.42
sg34
F0.0
sg35
F36.78
sg36
F0.87
sg37
F0.43
sg38
F1.36
sg39
F4.19
sg40
F343.99
sg41
F1183.71
sg42
F0.0
sg43
F1.94
sg44
F270.7
sg45
F7.26
sg46
F0.53
sg47
F2.0
sg48
F1.28
sg49
F3.94
sg50
F347.62
sg51
F159.24
sg52
F1.53
sg53
F2.42
sg54
F0.97
sg55
F87.05
sg56
F7.92
sg57
F20.85
sg58
F133.57
sg59
F7.13
sg60
F11837.05
sg61
F20.21
sg62
F1252.62
sg63
F270.7
ssg64
g65
sg66
(lp694
S'oil, coconut'
p695
aS'onion, white, fresh, chopped'
p696
aS'garlic, minced'
p697
aS'ginger root, fresh'
p698
aS'sweet potatoes, fresh, cubes'
p699
aS'tomato sauce'
p700
aS'spice blend, curry, powder'
p701
aS'coconut milk, canned, light'
p702
aS'kale, fresh, chopped'
p703
aS'beans, small white, dry'
p704
aS'water, tap'
p705
aS'sea salt, california'
p706
aS'quinoa, tricolor, dry'
p707
asg91
I0
sg92
g65
sg93
S'White Bean Korma with Tricolor Quinoa (GF)'
p708
sba(imodel
Meal
p709
(dp710
g3
(dp711
g5
F0.0
sg6
F170.82
sg7
F207.31
sg8
F0.04
sg9
F0.5
sg10
F453.15
sg11
F46.82
sg12
F0.38
sg13
F16.74
sg14
F0.49
sg15
F0.19
sg16
F2.1
sg17
F0.0
sg18
F88.05
sg19
F219.51
sg20
F2.03
sg21
F0.11
sg22
F766.08
sg23
F0.0
sg24
F82.27
sg25
F0.0
sg26
F1.4500000000000002
sg27
F0.0
sg28
F0.0
sg29
F1769.0
sg30
F1.06
sg31
F0.0
sg32
F9.85
sg33
F9.57
sg34
F0.0
sg35
F29.830000000000002
sg36
F1.32
sg37
F3.56
sg38
F1.29
sg39
F2.91
sg40
F51.6
sg41
F439.02
sg42
F0.0
sg43
F3.11
sg44
F392.15999999999997
sg45
F5.66
sg46
F2.1399999999999997
sg47
F2.0
sg48
F13.42
sg49
F4.92
sg50
F431.26
sg51
F309.92
sg52
F2.51
sg53
F3.3099999999999996
sg54
F1.55
sg55
F73.32000000000001
sg56
F0.94
sg57
F16.45
sg58
F77.06
sg59
F6.779999999999999
sg60
F4390.12
sg61
F20.02
sg62
F939.44
sg63
F378.24
ssg64
g65
sg66
(lp712
S'oil, olive'
p713
aS'onion, yellow, fresh, chopped'
p714
aS'garlic, minced'
p715
aS'ginger root, fresh'
p716
aS'jalapeno peppers, fresh'
p717
aS'coriander seed, ground'
p718
aS'cumin seeds, ground'
p719
aS'cayenne chili pepper, dried, ground'
p720
aS'turmeric, ground'
p721
aS'paprika, ground'
p722
aS'spice blend, garam masala'
p723
aS'tomatoes, crushed'
p724
aS'chickpeas, dry'
p725
aS'cauliflower florets, fresh'
p726
aS'spinach, baby, fresh'
p727
aS'lemon juice, fresh'
p728
aS'water, tap'
p729
aS'sea salt'
p730
aS'rice, brown'
p731
aS'cumin seeds'
p732
aS'peas, green, frozen'
p733
asg91
I0
sg92
g65
sg93
S'Chana Masala with Indian-Spiced Rice (GF)'
p734
sba(imodel
Meal
p735
(dp736
g3
(dp737
g5
F0.0
sg6
F139.84
sg7
F246.14
sg8
F0.0
sg9
F0.44
sg10
F542.6
sg11
F120.46
sg12
F0.22
sg13
F16.87
sg14
F0.63
sg15
F0.17
sg16
F1.59
sg17
F0.0
sg18
F321.48
sg19
F189.85
sg20
F6.92
sg21
F0.2
sg22
F764.0
sg23
F0.0
sg24
F57.2
sg25
F0.0
sg26
F1.19
sg27
F0.0
sg28
F0.0
sg29
F2171.32
sg30
F3.31
sg31
F0.0
sg32
F36.08
sg33
F29.78
sg34
F0.0
sg35
F20.78
sg36
F0.98
sg37
F18.96
sg38
F9.28
sg39
F2.82
sg40
F265.79
sg41
F379.69
sg42
F0.28
sg43
F2.78
sg44
F111.01
sg45
F11.94
sg46
F7.13
sg47
F1.0
sg48
F1.22
sg49
F3.11
sg50
F367.98
sg51
F238.33
sg52
F1.79
sg53
F6.88
sg54
F0.0
sg55
F49.4
sg56
F2.65
sg57
F11.41
sg58
F100.78
sg59
F3.82
sg60
F3796.94
sg61
F11.97
sg62
F876.69
sg63
F111.01
ssg64
g65
sg66
(lp738
S'tricolor quinoa'
p739
aS'brown rice'
p740
aS'cauliflower'
p741
aS'celery root'
p742
aS'kohlrabi'
p743
aS'brussels sprouts'
p744
aS'winter squash'
p745
aS'kale'
p746
aS'apple'
p747
aS'red onion'
p748
aS'dried cranberries'
p749
aS'almonds'
p750
aS'pumpkin seeds'
p751
aS'pecans'
p752
aS'almond oil'
p753
aS'balsamic vinegar'
p754
aS'lemon juice'
p755
aS'parsley'
p756
aS'sea salt'
p757
asg91
I0
sg92
g65
sg93
S'Harvest Grain Bowl (GF)'
p758
sba(imodel
Meal
p759
(dp760
g3
(dp761
g5
F0.0
sg6
F146.01999999999998
sg7
F146.06
sg8
F0.01
sg9
F0.48000000000000004
sg10
F444.44
sg11
F60.6
sg12
F0.54
sg13
F8.15
sg14
F0.21
sg15
F0.61
sg16
F1.03
sg17
F0.0
sg18
F148.17000000000002
sg19
F10.23
sg20
F1.78
sg21
F0.02
sg22
F762.85
sg23
F0.66
sg24
F59.25
sg25
F0.0
sg26
F0.58
sg27
F0.0
sg28
F0.0
sg29
F121.72
sg30
F2.13
sg31
F0.0
sg32
F16.67
sg33
F19.200000000000003
sg34
F0.0
sg35
F40.95
sg36
F0.8800000000000001
sg37
F10.440000000000001
sg38
F3.7800000000000002
sg39
F1.03
sg40
F49.080000000000005
sg41
F20.459999999999997
sg42
F0.04
sg43
F11.55
sg44
F78.24000000000001
sg45
F10.469999999999999
sg46
F3.2199999999999998
sg47
F2.0
sg48
F0.53
sg49
F3.79
sg50
F465.86
sg51
F127.77
sg52
F2.9000000000000004
sg53
F2.38
sg54
F0.28
sg55
F60.9
sg56
F1.5
sg57
F11.799999999999999
sg58
F65.94999999999999
sg59
F3.2800000000000002
sg60
F204.61
sg61
F17.68
sg62
F566.48
sg63
F78.24000000000001
ssg64
g65
sg66
(lp762
S'stock, vegetable, organic'
p763
aS'cauliflower florets, fresh'
p764
aS'vinegar, white wine'
p765
aS'oil, olive, pure'
p766
aS'onion, yellow, fresh'
p767
aS'garlic cloves, fresh'
p768
aS'celery, fresh, diced'
p769
aS'wheat, farro, dry'
p770
aS'black pepper, ground'
p771
aS'parsley, fresh, chopped'
p772
aS'cannellini beans, dry'
p773
aS'lemon juice, fresh'
p774
aS'nutritional yeast'
p775
aS'cashews, raw, whole'
p776
aS'water, tap'
p777
aS'sea salt'
p778
aS'almonds, slivered'
p779
aS'cayenne chili pepper, dried, ground'
p780
asg91
I0
sg92
g65
sg93
S'Cauliflower Farrotto with Spicy Almonds'
p781
sba.