(dp0
S'butternut squash & red lentil dal with seedy topping'
p1
(lp2
(imodel
Meal
p3
(dp4
S'nutrition'
p5
(dp6
S'moly'
p7
S'5.72 mcg'
p8
sS'prot'
p9
S'15.37 g'
p10
sS'iodine'
p11
S'0.6 mcg'
p12
sS'insoluble fiber'
p13
S'11.46 g'
p14
sS'vit d-iu'
p15
S'0.0 iu'
p16
sS'alc'
p17
S'0.0 g'
p18
sS'sel'
p19
S'0.88 mcg'
p20
sS'zinc'
p21
S'0.31 mg'
p22
sS'caff'
p23
S'0.0 mg'
p24
sS'folate'
p25
S'77.53 mcg'
p26
sS'transfat'
p27
S'0.0 g'
p28
sS'wgt'
p29
S'443.59 g'
p30
sS'polyfat'
p31
S'0.11 g'
p32
sS'cals'
p33
S'264.12 kcal'
p34
sS'totsolfib'
p35
S'0.26 g'
p36
sS'sugar'
p37
S'5.94 g'
p38
sS'disacc'
p39
S'0.43 g'
p40
sS'vit a-rae'
p41
S'331.7 mcg'
p42
sS'monsac'
p43
S'2.68 g'
p44
sS'vit d-mcg'
p45
S'0.0 mcg'
p46
sS'fatcals'
p47
S'33.26 kcal'
p48
sS'biot'
p49
S'1.67 mcg'
p50
sS'caroten'
p51
S'663.4 mcg'
p52
sS'totfib'
p53
S'11.72 g'
p54
sS'betacaro'
p55
S'2179.26 mcg'
p56
sS'potassium'
p57
S'768.18 mg'
p58
sS'ocarb'
p59
S'26.79 g'
p60
sS'chln'
p61
S'20.36 mg'
p62
sS'vit b3'
p63
S'0.88 mg'
p64
sS'vit b2'
p65
S'0.05 mg'
p66
sS'vit b1'
p67
S'0.19 mg'
p68
sS'vit b6'
p69
S'0.21 mg'
p70
sS'fat'
p71
S'3.7 g'
p72
sS'water'
p73
S'288.22 g'
p74
sS'vit b12'
p75
S'0.0 mcg'
p76
sS'copp'
p77
S'0.11 mg'
p78
sS'panto'
p79
S'0.5 mg'
p80
sS'satcals'
p81
S'17.81 kcal'
p82
sS'magn'
p83
S'47.01 mg'
p84
sS'vit e-a-toco'
p85
S'0.79 mg'
p86
sS'satfat'
p87
S'1.98 g'
p88
sS'carb'
p89
S'44.86 g'
p90
sS'vit a-iu'
p91
S'6633.97 iu'
p92
sS'chrom'
p93
S'0.08 mcg'
p94
sS'vit b3-ne'
p95
S'1.23 mg'
p96
sS'retinol'
p97
S'0.0 mcg'
p98
sS'vit c'
p99
S'37.15 mg'
p100
sS'vit k'
p101
S'100.01 mcg'
p102
sS'fol_dfe'
p103
S'41.07 mcg dfe'
p104
sS'fluor'
p105
S'0.13 mg'
p106
sS'phos'
p107
S'47.99 mg'
p108
sS'sodium'
p109
S'765.3 mg'
p110
sS'chol'
p111
S'0.0 mg'
p112
sS'monofat'
p113
S'0.18 g'
p114
sS'iron'
p115
S'4.25 mg'
p116
sS'mang'
p117
S'0.7 mg'
p118
sS'calc'
p119
S'94.44 mg'
p120
sS'omega6'
p121
S'0.08 g'
p122
sS'omega3'
p123
S'0.03 g'
p124
sS'quantity'
p125
S'1.0 '
p126
ssS'supplierID'
p127
S'Euphebe'
p128
sS'ingredients'
p129
(dp130
S'butter'
p131
S'48.67'
p132
sS'coriander'
p133
S'0.47'
p134
sS'oil'
p135
S'2.27'
p136
sS'red lentils'
p137
S'42.05'
p138
sS'cauliflower'
p139
S'35.44'
p140
sS'spinach'
p141
S'19.37'
p142
sS'saffron powder'
p143
S'0.47'
p144
sS'cumin'
p145
S'0.47'
p146
sS'sea salt'
p147
S'1.80019325'
p148
sS'paprika'
p149
S'0.47'
p150
sS'water'
p151
S'177.6'
p152
sS'lemon juice'
p153
S'2.54'
p154
sS'black pepper'
p155
S'0.47'
p156
sS'garlic'
p157
S'0.94'
p158
sS'turmeric'
p159
S'0.47'
p160
sS'ginger root'
p161
S'7.56'
p162
sS'tomatoes'
p163
S'72.29'
p164
sS'white onion'
p165
S'30.24'
p166
ssS'price'
p167
I0
sS'_id'
p168
S''
p169
sS'type'
p170
g169
sS'name'
p171
S'butternut squash & red lentil dal'
p172
sbasS'puy lentil & cabbage burger with roasted veggies'
p173
(lp174
(imodel
Meal
p175
(dp176
g5
(dp177
S'moly'
p178
S'3.82 mcg'
p179
sS'prot'
p180
S'11.35 g'
p181
sS'iodine'
p182
S'0.53 mcg'
p183
sS'insoluble fiber'
p184
S'6.21 g'
p185
sS'vit d-iu'
p186
S'0.0 iu'
p187
sS'alc'
p188
S'0.0 g'
p189
sS'sel'
p190
S'0.35 mcg'
p191
sS'zinc'
p192
S'0.21 mg'
p193
sS'caff'
p194
S'0.0 mg'
p195
sS'folate'
p196
S'16.26 mcg'
p197
sS'transfat'
p198
S'0.0 g'
p199
sS'wgt'
p200
S'180.71 g'
p201
sS'polyfat'
p202
S'1.15 g'
p203
sS'cals'
p204
S'264.08 kcal'
p205
sS'totsolfib'
p206
S'2.07 g'
p207
sS'sugar'
p208
S'5.44 g'
p209
sS'disacc'
p210
S'1.29 g'
p211
sS'vit a-rae'
p212
S'217.1 mcg'
p213
sS'monsac'
p214
S'1.98 g'
p215
sS'vit d-mcg'
p216
S'0.0 mcg'
p217
sS'fatcals'
p218
S'44.95 kcal'
p219
sS'biot'
p220
S'1.03 mcg'
p221
sS'caroten'
p222
S'434.2 mcg'
p223
sS'totfib'
p224
S'8.28 g'
p225
sS'betacaro'
p226
S'2183.73 mcg'
p227
sS'potassium'
p228
S'333.01 mg'
p229
sS'ocarb'
p230
S'29.69 g'
p231
sS'chln'
p232
S'8.54 mg'
p233
sS'vit b3'
p234
S'0.41 mg'
p235
sS'vit b2'
p236
S'0.05 mg'
p237
sS'vit b1'
p238
S'0.18 mg'
p239
sS'vit b6'
p240
S'0.13 mg'
p241
sS'fat'
p242
S'5.03 g'
p243
sS'water'
p244
S'103.97 g'
p245
sS'vit b12'
p246
S'0.0 mcg'
p247
sS'copp'
p248
S'0.05 mg'
p249
sS'panto'
p250
S'0.15 mg'
p251
sS'satcals'
p252
S'6.81 kcal'
p253
sS'magn'
p254
S'50.34 mg'
p255
sS'vit e-a-toco'
p256
S'0.55 mg'
p257
sS'satfat'
p258
S'0.76 g'
p259
sS'carb'
p260
S'43.43 g'
p261
sS'vit a-iu'
p262
S'4341.99 iu'
p263
sS'chrom'
p264
S'0.17 mcg'
p265
sS'vit b3-ne'
p266
S'0.58 mg'
p267
sS'retinol'
p268
S'0.0 mcg'
p269
sS'vit c'
p270
S'19.6 mg'
p271
sS'vit k'
p272
S'25.59 mcg'
p273
sS'fol_dfe'
p274
S'16.26 mcg dfe'
p275
sS'fluor'
p276
S'0.03 mg'
p277
sS'phos'
p278
S'158.11 mg'
p279
sS'sodium'
p280
S'252.29 mg'
p281
sS'chol'
p282
S'0.0 mg'
p283
sS'monofat'
p284
S'2.34 g'
p285
sS'iron'
p286
S'4.11 mg'
p287
sS'mang'
p288
S'0.25 mg'
p289
sS'calc'
p290
S'76.98 mg'
p291
sS'omega6'
p292
S'0.24 g'
p293
sS'omega3'
p294
S'0.03 g'
p295
sS'quantity'
p296
S'1.0 '
p297
ssg127
g128
sg129
(dp298
S'carrots, fresh, chopped'
p299
S'24.22'
p300
sS'oats, rolled, old fashioned, dry'
p301
S'35.14'
p302
sg135
S'1.97'
p303
sS'onion, yellow, fresh, chopped'
p304
S'26.58'
p305
sS'black pepper, ground'
p306
S'0.48'
p307
sS'garlic, minced'
p308
S'1.48'
p309
sS'basil, dried, ground'
p310
S'0.61'
p311
sS'water, tap'
p312
S'34.53'
p313
sS'cumin seeds, ground'
p314
S'0.48'
p315
sS'lentil'
p316
S'28.94'
p317
sS'sea salt'
p318
S'0.57'
p319
sS'cabbage'
p320
S'25.69'
p321
ssg167
I0
sg168
g169
sg170
g169
sg171
S'puy lentil & cabbage burger'
p322
sbasS'chickpea & maitake tacos with corn tortillas'
p323
(lp324
(imodel
Meal
p325
(dp326
g5
(dp327
S'moly'
p328
S'2.54 mcg'
p329
sS'prot'
p330
S'18.56 g'
p331
sS'iodine'
p332
S'1.01 mcg'
p333
sS'insoluble fiber'
p334
S'9.21 g'
p335
sS'vit d-iu'
p336
S'1446.79 iu'
p337
sS'alc'
p338
S'0.0 g'
p339
sS'sel'
p340
S'3.09 mcg'
p341
sS'zinc'
p342
S'1.88 mg'
p343
sS'caff'
p344
S'0.0 mg'
p345
sS'folate'
p346
S'222.96 mcg'
p347
sS'transfat'
p348
S'0.0 g'
p349
sS'wgt'
p350
S'380.99 g'
p351
sS'polyfat'
p352
S'4.72 g'
p353
sS'cals'
p354
S'512.52 kcal'
p355
sS'totsolfib'
p356
S'1.3 g'
p357
sS'sugar'
p358
S'12.31 g'
p359
sS'disacc'
p360
S'0.93 g'
p361
sS'vit a-rae'
p362
S'47.18 mcg'
p363
sS'monsac'
p364
S'3.89 g'
p365
sS'vit d-mcg'
p366
S'36.2 mcg'
p367
sS'fatcals'
p368
S'239.34 kcal'
p369
sS'biot'
p370
S'1.77 mcg'
p371
sS'caroten'
p372
S'94.36 mcg'
p373
sS'totfib'
p374
S'10.51 g'
p375
sS'betacaro'
p376
S'12.35 mcg'
p377
sS'potassium'
p378
S'549.48 mg'
p379
sS'ocarb'
p380
S'25.47 g'
p381
sS'chln'
p382
S'98.34 mg'
p383
sS'vit b3'
p384
S'9.0 mg'
p385
sS'vit b2'
p386
S'0.39 mg'
p387
sS'vit b1'
p388
S'0.35 mg'
p389
sS'vit b6'
p390
S'0.29 mg'
p391
sS'fat'
p392
S'26.63 g'
p393
sS'water'
p394
S'244.83 g'
p395
sS'vit b12'
p396
S'0.0 mcg'
p397
sS'copp'
p398
S'0.55 mg'
p399
sS'panto'
p400
S'0.88 mg'
p401
sS'satcals'
p402
S'36.87 kcal'
p403
sS'magn'
p404
S'50.1 mg'
p405
sS'vit e-a-toco'
p406
S'0.57 mg'
p407
sS'satfat'
p408
S'4.1 g'
p409
sS'carb'
p410
S'48.29 g'
p411
sS'vit a-iu'
p412
S'943.6 iu'
p413
sS'chrom'
p414
S'0.0 mcg'
p415
sS'vit b3-ne'
p416
S'10.86 mg'
p417
sS'retinol'
p418
S'0.0 mcg'
p419
sS'vit c'
p420
S'18.72 mg'
p421
sS'vit k'
p422
S'58.56 mcg'
p423
sS'fol_dfe'
p424
S'201.62 mcg dfe'
p425
sS'fluor'
p426
S'0.05 mg'
p427
sS'phos'
p428
S'184.66 mg'
p429
sS'sodium'
p430
S'756.2 mg'
p431
sS'chol'
p432
S'0.0 mg'
p433
sS'monofat'
p434
S'14.47 g'
p435
sS'iron'
p436
S'5.53 mg'
p437
sS'mang'
p438
S'6.56 mg'
p439
sS'calc'
p440
S'78.45 mg'
p441
sS'omega6'
p442
S'1.11 g'
p443
sS'omega3'
p444
S'0.05 g'
p445
sS'quantity'
p446
S'1.0 '
p447
ssg127
g128
sg129
(dp448
g135
S'2.1'
p449
sS'mushrooms, maitake, fresh, diced'
p450
S'128.83'
p451
sS'poblano peppers, fresh, sliced'
p452
S'22.68'
p453
sS'garlic, minced'
p454
S'9.13'
p455
sS'onion, white, fresh, chopped'
p456
S'50.71'
p457
sS'water, tap'
p458
S'37.93'
p459
sS'raw'
p460
S'49.95'
p461
sS'chickpeas, dry'
p462
S'29.61'
p463
sS'sea salt'
p464
S'1.871067'
p465
sS'spinach, baby, fresh'
p466
S'11.34'
p467
ssg167
I0
sg168
g169
sg170
g169
sg171
S'chickpea & maitake tacos'
p468
sbasS'veggie heavy spanakopita with chickpea toast and olive and almond crumble'
p469
(lp470
(imodel
Meal
p471
(dp472
g5
(dp473
S'moly'
p474
S'6.69 mcg'
p475
sS'prot'
p476
S'8.72 g'
p477
sS'iodine'
p478
S'0.71 mcg'
p479
sS'insoluble fiber'
p480
S'7.85 g'
p481
sS'vit d-iu'
p482
S'0.0 iu'
p483
sS'alc'
p484
S'0.0 g'
p485
sS'sel'
p486
S'10.05 mcg'
p487
sS'zinc'
p488
S'1.38 mg'
p489
sS'caff'
p490
S'0.0 mg'
p491
sS'folate'
p492
S'276.4 mcg'
p493
sS'transfat'
p494
S'0.0 g'
p495
sS'wgt'
p496
S'384.08 g'
p497
sS'polyfat'
p498
S'0.76 g'
p499
sS'cals'
p500
S'163.37 kcal'
p501
sS'totsolfib'
p502
S'0.37 g'
p503
sS'sugar'
p504
S'9.18 g'
p505
sS'disacc'
p506
S'0.72 g'
p507
sS'vit a-rae'
p508
S'924.75 mcg'
p509
sS'monsac'
p510
S'8.42 g'
p511
sS'vit d-mcg'
p512
S'0.0 mcg'
p513
sS'fatcals'
p514
S'56.38 kcal'
p515
sS'biot'
p516
S'4.0 mcg'
p517
sS'caroten'
p518
S'1849.51 mcg'
p519
sS'totfib'
p520
S'8.22 g'
p521
sS'betacaro'
p522
S'11072.01 mcg'
p523
sS'potassium'
p524
S'1100.82 mg'
p525
sS'ocarb'
p526
S'3.65 g'
p527
sS'chln'
p528
S'72.28 mg'
p529
sS'vit b3'
p530
S'2.39 mg'
p531
sS'vit b2'
p532
S'0.43 mg'
p533
sS'vit b1'
p534
S'0.27 mg'
p535
sS'vit b6'
p536
S'0.56 mg'
p537
sS'fat'
p538
S'6.35 g'
p539
sS'water'
p540
S'342.38 g'
p541
sS'vit b12'
p542
S'0.0 mcg'
p543
sS'copp'
p544
S'0.44 mg'
p545
sS'panto'
p546
S'0.81 mg'
p547
sS'satcals'
p548
S'7.42 kcal'
p549
sS'magn'
p550
S'148.12 mg'
p551
sS'vit e-a-toco'
p552
S'6.39 mg'
p553
sS'satfat'
p554
S'0.82 g'
p555
sS'carb'
p556
S'21.16 g'
p557
sS'vit a-iu'
p558
S'18495.06 iu'
p559
sS'chrom'
p560
S'0.33 mcg'
p561
sS'vit b3-ne'
p562
S'5.25 mg'
p563
sS'retinol'
p564
S'0.0 mcg'
p565
sS'vit c'
p566
S'52.78 mg'
p567
sS'vit k'
p568
S'620.47 mcg'
p569
sS'fol_dfe'
p570
S'276.4 mcg dfe'
p571
sS'fluor'
p572
S'0.0 mg'
p573
sS'phos'
p574
S'147.0 mg'
p575
sS'sodium'
p576
S'385.96 mg'
p577
sS'chol'
p578
S'0.0 mg'
p579
sS'monofat'
p580
S'3.42 g'
p581
sS'iron'
p582
S'4.56 mg'
p583
sS'mang'
p584
S'1.4 mg'
p585
sS'calc'
p586
S'251.98 mg'
p587
sS'omega6'
p588
S'0.59 g'
p589
sS'omega3'
p590
S'0.17 g'
p591
sS'quantity'
p592
S'1.0 '
p593
ssg127
g128
sg129
(dp594
S'tomato'
p595
S'47.33'
p596
sS'parsley, fresh, sprigs'
p597
S'2.4'
p598
sg135
S'4.58'
p599
sS'cauliflower florets, fresh'
p600
S'50.93'
p601
sS'tomatoes, crushed, canned'
p602
S'82.65'
p603
sg141
S'151.12'
p604
sS'vinegar, balsamic'
p605
S'5.42'
p606
sS'garlic, minced'
p607
S'3.84'
p608
sS'onion, white, fresh, chopped'
p609
S'35.56'
p610
sS'sea salt'
p611
S'0.26'
p612
ssg167
I0
sg168
g169
sg170
g169
sg171
S'veggie spanakopita'
p613
sba(imodel
Meal
p614
(dp615
g5
(dp616
S'moly'
p617
S'6.5 mcg'
p618
sS'prot'
p619
S'4.67 g'
p620
sS'iodine'
p621
S'0.44 mcg'
p622
sS'insoluble fiber'
p623
S'2.43 g'
p624
sS'vit d-iu'
p625
S'0.0 iu'
p626
sS'alc'
p627
S'0.0 g'
p628
sS'sel'
p629
S'0.91 mcg'
p630
sS'zinc'
p631
S'0.69 mg'
p632
sS'caff'
p633
S'0.0 mg'
p634
sS'folate'
p635
S'10.04 mcg'
p636
sS'transfat'
p637
S'0.0 g'
p638
sS'wgt'
p639
S'48.94 g'
p640
sS'polyfat'
p641
S'2.72 g'
p642
sS'cals'
p643
S'189.13 kcal'
p644
sS'totsolfib'
p645
S'0.33 g'
p646
sS'sugar'
p647
S'1.0 g'
p648
sS'disacc'
p649
S'0.89 g'
p650
sS'vit a-rae'
p651
S'0.03 mcg'
p652
sS'monsac'
p653
S'0.11 g'
p654
sS'vit d-mcg'
p655
S'0.0 mcg'
p656
sS'fatcals'
p657
S'147.23 kcal'
p658
sS'biot'
p659
S'14.12 mcg'
p660
sS'caroten'
p661
S'0.05 mcg'
p662
sS'totfib'
p663
S'2.76 g'
p664
sS'betacaro'
p665
S'0.24 mcg'
p666
sS'potassium'
p667
S'163.37 mg'
p668
sS'ocarb'
p669
S'4.16 g'
p670
sS'chln'
p671
S'11.57 mg'
p672
sS'vit b3'
p673
S'0.8 mg'
p674
sS'vit b2'
p675
S'0.25 mg'
p676
sS'vit b1'
p677
S'0.05 mg'
p678
sS'vit b6'
p679
S'0.03 mg'
p680
sS'fat'
p681
S'16.36 g'
p682
sS'water'
p683
S'2.54 g'
p684
sS'vit b12'
p685
S'0.0 mcg'
p686
sS'copp'
p687
S'0.23 mg'
p688
sS'panto'
p689
S'0.11 mg'
p690
sS'satcals'
p691
S'7.55 kcal'
p692
sS'magn'
p693
S'59.64 mg'
p694
sS'vit e-a-toco'
p695
S'5.65 mg'
p696
sS'satfat'
p697
S'0.84 g'
p698
sS'carb'
p699
S'7.92 g'
p700
sS'vit a-iu'
p701
S'0.54 iu'
p702
sS'chrom'
p703
S'0.0 mcg'
p704
sS'vit b3-ne'
p705
S'1.53 mg'
p706
sS'retinol'
p707
S'0.0 mcg'
p708
sS'vit c'
p709
S'0.66 mg'
p710
sS'vit k'
p711
S'0.0 mcg'
p712
sS'fol_dfe'
p713
S'10.04 mcg dfe'
p714
sS'fluor'
p715
S'0.0 mg'
p716
sS'phos'
p717
S'106.19 mg'
p718
sS'sodium'
p719
S'351.5 mg'
p720
sS'chol'
p721
S'0.0 mg'
p722
sS'monofat'
p723
S'6.96 g'
p724
sS'iron'
p725
S'0.82 mg'
p726
sS'mang'
p727
S'0.48 mg'
p728
sS'calc'
p729
S'59.42 mg'
p730
sS'omega6'
p731
S'2.72 g'
p732
sS'omega3'
p733
S'0.0 g'
p734
sS'quantity'
p735
S'1.0 '
p736
ssg127
g128
sg129
(dp737
S'lemon juice, fresh'
p738
S'1.69'
p739
sS'olives, kalamata'
p740
S'25.2'
p741
sS'almonds, sliced'
p742
S'22.05'
p743
ssg167
I0
sg168
g169
sg170
g169
sg171
S'olive & almond crumble'
p744
sbasS'cremini & shiitake mushroom soup with rosemary oat crumble'
p745
(lp746
(imodel
Meal
p747
(dp748
g5
(dp749
S'moly'
p750
S'2.17 mcg'
p751
sS'prot'
p752
S'12.76 g'
p753
sS'iodine'
p754
S'0.68 mcg'
p755
sS'insoluble fiber'
p756
S'13.92 g'
p757
sS'vit d-iu'
p758
S'4.76 iu'
p759
sS'alc'
p760
S'0.57 g'
p761
sS'sel'
p762
S'7.51 mcg'
p763
sS'zinc'
p764
S'1.54 mg'
p765
sS'caff'
p766
S'0.0 mg'
p767
sS'folate'
p768
S'20.47 mcg'
p769
sS'transfat'
p770
S'0.0 g'
p771
sS'wgt'
p772
S'340.5 g'
p773
sS'polyfat'
p774
S'2.09 g'
p775
sS'cals'
p776
S'326.05 kcal'
p777
sS'totsolfib'
p778
S'0.01 g'
p779
sS'sugar'
p780
S'7.22 g'
p781
sS'disacc'
p782
S'0.36 g'
p783
sS'vit a-rae'
p784
S'39.54 mcg'
p785
sS'monsac'
p786
S'1.78 g'
p787
sS'vit d-mcg'
p788
S'0.11 mcg'
p789
sS'fatcals'
p790
S'134.76 kcal'
p791
sS'biot'
p792
S'1.21 mcg'
p793
sS'caroten'
p794
S'79.08 mcg'
p795
sS'totfib'
p796
S'13.93 g'
p797
sS'betacaro'
p798
S'461.37 mcg'
p799
sS'potassium'
p800
S'663.99 mg'
p801
sS'ocarb'
p802
S'13.42 g'
p803
sS'chln'
p804
S'8.54 mg'
p805
sS'vit b3'
p806
S'1.83 mg'
p807
sS'vit b2'
p808
S'0.18 mg'
p809
sS'vit b1'
p810
S'0.05 mg'
p811
sS'vit b6'
p812
S'0.17 mg'
p813
sS'fat'
p814
S'15.07 g'
p815
sS'water'
p816
S'101.42 g'
p817
sS'vit b12'
p818
S'0.02 mcg'
p819
sS'copp'
p820
S'0.18 mg'
p821
sS'panto'
p822
S'0.77 mg'
p823
sS'satcals'
p824
S'21.27 kcal'
p825
sS'magn'
p826
S'57.4 mg'
p827
sS'vit e-a-toco'
p828
S'0.8 mg'
p829
sS'satfat'
p830
S'2.36 g'
p831
sS'carb'
p832
S'35.44 g'
p833
sS'vit a-iu'
p834
S'790.8 iu'
p835
sS'chrom'
p836
S'0.09 mcg'
p837
sS'vit b3-ne'
p838
S'2.22 mg'
p839
sS'retinol'
p840
S'0.0 mcg'
p841
sS'vit c'
p842
S'10.97 mg'
p843
sS'vit k'
p844
S'4.39 mcg'
p845
sS'fol_dfe'
p846
S'20.47 mcg dfe'
p847
sS'fluor'
p848
S'0.01 mg'
p849
sS'phos'
p850
S'171.41 mg'
p851
sS'sodium'
p852
S'665.44 mg'
p853
sS'chol'
p854
S'0.0 mg'
p855
sS'monofat'
p856
S'9.15 g'
p857
sS'iron'
p858
S'4.49 mg'
p859
sS'mang'
p860
S'0.24 mg'
p861
sS'calc'
p862
S'98.0 mg'
p863
sS'omega6'
p864
S'0.55 g'
p865
sS'omega3'
p866
S'0.05 g'
p867
sS'quantity'
p868
S'1.0 '
p869
ssg127
g128
sg129
(dp870
g460
S'20.78'
p871
sS'cannellini beans, dry'
p872
S'28.35'
p873
sg135
S'5.4'
p874
sS'thyme, fresh'
p875
S'0.57'
p876
sS'black pepper, ground'
p877
S'0.57'
p878
sS'sea salt'
p879
S'1.59'
p880
sS'onion, white, fresh, chopped'
p881
S'34.02'
p882
sS'water, tap'
p883
S'15.78'
p884
sS'mushrooms, shiitake, fresh'
p885
S'22.68'
p886
sS'wine, cooking, white'
p887
S'6'
p888
sS'lemon juice, fresh'
p889
S'6.1'
p890
sS'rosemary, fresh'
p891
S'0.57'
p892
sS'shallots, fresh, chopped'
p893
S'9.41'
p894
sS'chives, ground'
p895
S'2.83'
p896
sS'mushrooms, brown, fresh, sliced'
p897
S'22.68'
p898
sS'euphebe organic vegetable stock'
p899
S'163.17'
p900
ssg167
I0
sg168
g169
sg170
g169
sg171
S'cremini & shiitake mushroom soup'
p901
sbasS'power veggie burger with sweet potato and parsnip fries and real ketchup'
p902
(lp903
(imodel
Meal
p904
(dp905
g5
(dp906
S'moly'
p907
S'11.99 mcg'
p908
sS'prot'
p909
S'3.35 g'
p910
sS'iodine'
p911
S'0.0 mcg'
p912
sS'insoluble fiber'
p913
S'7.74 g'
p914
sS'vit d-iu'
p915
S'0.0 iu'
p916
sS'alc'
p917
S'0.0 g'
p918
sS'sel'
p919
S'2.89 mcg'
p920
sS'zinc'
p921
S'1.07 mg'
p922
sS'caff'
p923
S'0.0 mg'
p924
sS'folate'
p925
S'93.72 mcg'
p926
sS'transfat'
p927
S'0.0 g'
p928
sS'wgt'
p929
S'241.88 g'
p930
sS'polyfat'
p931
S'0.09 g'
p932
sS'cals'
p933
S'204.43 kcal'
p934
sS'totsolfib'
p935
S'1.8 g'
p936
sS'sugar'
p937
S'10.77 g'
p938
sS'disacc'
p939
S'3.02 g'
p940
sS'vit a-rae'
p941
S'852.15 mcg'
p942
sS'monsac'
p943
S'1.99 g'
p944
sS'vit d-mcg'
p945
S'0.0 mcg'
p946
sS'fatcals'
p947
S'13.17 kcal'
p948
sS'biot'
p949
S'0.12 mcg'
p950
sS'caroten'
p951
S'1704.3 mcg'
p952
sS'totfib'
p953
S'9.54 g'
p954
sS'betacaro'
p955
S'10221.96 mcg'
p956
sS'potassium'
p957
S'855.44 mg'
p958
sS'ocarb'
p959
S'25.5 g'
p960
sS'chln'
p961
S'14.8 mg'
p962
sS'vit b3'
p963
S'1.51 mg'
p964
sS'vit b2'
p965
S'0.13 mg'
p966
sS'vit b1'
p967
S'0.2 mg'
p968
sS'vit b6'
p969
S'0.36 mg'
p970
sS'fat'
p971
S'1.46 g'
p972
sS'water'
p973
S'188.05 g'
p974
sS'vit b12'
p975
S'0.0 mcg'
p976
sS'copp'
p977
S'0.33 mg'
p978
sS'panto'
p979
S'1.68 mg'
p980
sS'satcals'
p981
S'8.47 kcal'
p982
sS'magn'
p983
S'65.02 mg'
p984
sS'vit e-a-toco'
p985
S'2.11 mg'
p986
sS'satfat'
p987
S'0.94 g'
p988
sS'carb'
p989
S'46.19 g'
p990
sS'vit a-iu'
p991
S'17043.02 iu'
p992
sS'chrom'
p993
S'0.0 mcg'
p994
sS'vit b3-ne'
p995
S'2.13 mg'
p996
sS'retinol'
p997
S'0.0 mcg'
p998
sS'vit c'
p999
S'23.28 mg'
p1000
sS'vit k'
p1001
S'29.64 mcg'
p1002
sS'fol_dfe'
p1003
S'93.72 mcg dfe'
p1004
sS'fluor'
p1005
S'0.0 mg'
p1006
sS'phos'
p1007
S'141.79 mg'
p1008
sS'sodium'
p1009
S'352.7 mg'
p1010
sS'chol'
p1011
S'0.0 mg'
p1012
sS'monofat'
p1013
S'0.2 g'
p1014
sS'iron'
p1015
S'1.48 mg'
p1016
sS'mang'
p1017
S'0.99 mg'
p1018
sS'calc'
p1019
S'80.6 mg'
p1020
sS'omega6'
p1021
S'0.08 g'
p1022
sS'omega3'
p1023
S'0.01 g'
p1024
sS'quantity'
p1025
S'1.0 '
p1026
ssg127
g128
sg129
(dp1027
S'garlic powder'
p1028
S'0.04'
p1029
sS'parsnips'
p1030
S'119.91'
p1031
sg135
S'1.04'
p1032
sS'chili powder'
p1033
S'0.11'
p1034
sS'black pepper'
p1035
S'0.03'
p1036
sS'paprika'
p1037
S'0.07'
p1038
sS'sweet potatoes'
p1039
S'119.91'
p1040
sS'oregano'
p1041
S'0.07'
p1042
sS'sea salt'
p1043
S'0.7087375'
p1044
ssg167
I0
sg168
g169
sg170
g169
sg171
S'sweet potato and parsnip fries'
p1045
sbasS'roasted chickpea & tahini soup'
p1046
(lp1047
(imodel
Meal
p1048
(dp1049
g5
(dp1050
S'moly'
p1051
S'1.45 mcg'
p1052
sS'prot'
p1053
S'15.25 g'
p1054
sS'iodine'
p1055
S'0.58 mcg'
p1056
sS'insoluble fiber'
p1057
S'8.27 g'
p1058
sS'vit d-iu'
p1059
S'0.0 iu'
p1060
sS'alc'
p1061
S'0.0 g'
p1062
sS'sel'
p1063
S'2.5 mcg'
p1064
sS'zinc'
p1065
S'1.64 mg'
p1066
sS'caff'
p1067
S'0.0 mg'
p1068
sS'folate'
p1069
S'312.53 mcg'
p1070
sS'transfat'
p1071
S'0.0 g'
p1072
sS'wgt'
p1073
S'421.99 g'
p1074
sS'polyfat'
p1075
S'3.76 g'
p1076
sS'cals'
p1077
S'389.34 kcal'
p1078
sS'totsolfib'
p1079
S'2.0 g'
p1080
sS'sugar'
p1081
S'8.62 g'
p1082
sS'disacc'
p1083
S'0.29 g'
p1084
sS'vit a-rae'
p1085
S'146.45 mcg'
p1086
sS'monsac'
p1087
S'0.94 g'
p1088
sS'vit d-mcg'
p1089
S'0.0 mcg'
p1090
sS'fatcals'
p1091
S'113.73 kcal'
p1092
sS'biot'
p1093
S'1.01 mcg'
p1094
sS'caroten'
p1095
S'292.9 mcg'
p1096
sS'totfib'
p1097
S'10.27 g'
p1098
sS'betacaro'
p1099
S'132.26 mcg'
p1100
sS'potassium'
p1101
S'417.55 mg'
p1102
sS'ocarb'
p1103
S'33.88 g'
p1104
sS'chln'
p1105
S'47.43 mg'
p1106
sS'vit b3'
p1107
S'1.16 mg'
p1108
sS'vit b2'
p1109
S'0.12 mg'
p1110
sS'vit b1'
p1111
S'0.34 mg'
p1112
sS'vit b6'
p1113
S'0.3 mg'
p1114
sS'fat'
p1115
S'12.64 g'
p1116
sS'water'
p1117
S'42.86 g'
p1118
sS'vit b12'
p1119
S'0.0 mcg'
p1120
sS'copp'
p1121
S'0.43 mg'
p1122
sS'panto'
p1123
S'0.77 mg'
p1124
sS'satcals'
p1125
S'15.51 kcal'
p1126
sS'magn'
p1127
S'64.09 mg'
p1128
sS'vit e-a-toco'
p1129
S'0.54 mg'
p1130
sS'satfat'
p1131
S'1.72 g'
p1132
sS'carb'
p1133
S'53.91 g'
p1134
sS'vit a-iu'
p1135
S'2929.05 iu'
p1136
sS'chrom'
p1137
S'0.08 mcg'
p1138
sS'vit b3-ne'
p1139
S'2.76 mg'
p1140
sS'retinol'
p1141
S'0.0 mcg'
p1142
sS'vit c'
p1143
S'13.78 mg'
p1144
sS'vit k'
p1145
S'121.61 mcg'
p1146
sS'fol_dfe'
p1147
S'266.98 mcg dfe'
p1148
sS'fluor'
p1149
S'0.01 mg'
p1150
sS'phos'
p1151
S'178.23 mg'
p1152
sS'sodium'
p1153
S'766.92 mg'
p1154
sS'chol'
p1155
S'0.0 mg'
p1156
sS'monofat'
p1157
S'5.2 g'
p1158
sS'iron'
p1159
S'4.9 mg'
p1160
sS'mang'
p1161
S'10.07 mg'
p1162
sS'calc'
p1163
S'153.93 mg'
p1164
sS'omega6'
p1165
S'2.76 g'
p1166
sS'omega3'
p1167
S'0.08 g'
p1168
sS'quantity'
p1169
S'1.0 '
p1170
ssg127
g128
sg129
(dp1171
S'onion, yellow, fresh, chopped'
p1172
S'28.96'
p1173
sS'cayenne chili pepper, dried, ground'
p1174
S'0.51'
p1175
sS'garlic, minced'
p1176
S'4.96'
p1177
sS'potato, yukon gold, fresh, diced'
p1178
S'70.17'
p1179
sS'broth, vegetable, low sodium'
p1180
S'215.21'
p1181
sS'cumin seeds, ground'
p1182
S'0.53'
p1183
sg460
S'12.87'
p1184
sS'chickpeas, dry'
p1185
S'45.66'
p1186
sS'coriander seed, ground'
p1187
S'0.47'
p1188
sS'water, tap'
p1189
S'9.78'
p1190
sS'tahini'
p1191
S'6.64'
p1192
sS'sea salt'
p1193
S'1.53'
p1194
sS'spinach, baby, fresh'
p1195
S'24.2'
p1196
sS'black pepper, ground'
p1197
S'0.51'
p1198
ssg167
I0
sg168
g169
sg170
g169
sg171
S'roasted chickpea & tahini soup'
p1199
sbasS'tomato & cannellini bean soup'
p1200
(lp1201
(imodel
Meal
p1202
(dp1203
g5
(dp1204
S'moly'
p1205
S'3.48 mcg'
p1206
sS'prot'
p1207
S'17.16 g'
p1208
sS'iodine'
p1209
S'0.84 mcg'
p1210
sS'insoluble fiber'
p1211
S'16.03 g'
p1212
sS'vit d-iu'
p1213
S'0.0 iu'
p1214
sS'alc'
p1215
S'0.0 g'
p1216
sS'sel'
p1217
S'8.76 mcg'
p1218
sS'zinc'
p1219
S'2.06 mg'
p1220
sS'caff'
p1221
S'0.0 mg'
p1222
sS'folate'
p1223
S'303.93 mcg'
p1224
sS'transfat'
p1225
S'0.0 g'
p1226
sS'wgt'
p1227
S'483.05 g'
p1228
sS'polyfat'
p1229
S'0.59 g'
p1230
sS'cals'
p1231
S'318.45 kcal'
p1232
sS'totsolfib'
p1233
S'4.95 g'
p1234
sS'sugar'
p1235
S'8.51 g'
p1236
sS'disacc'
p1237
S'1.46 g'
p1238
sS'vit a-rae'
p1239
S'317.66 mcg'
p1240
sS'monsac'
p1241
S'3.59 g'
p1242
sS'vit d-mcg'
p1243
S'0.0 mcg'
p1244
sS'fatcals'
p1245
S'25.09 kcal'
p1246
sS'biot'
p1247
S'3.56 mcg'
p1248
sS'caroten'
p1249
S'635.32 mcg'
p1250
sS'totfib'
p1251
S'20.98 g'
p1252
sS'betacaro'
p1253
S'2422.5 mcg'
p1254
sS'potassium'
p1255
S'1447.86 mg'
p1256
sS'ocarb'
p1257
S'4.3 g'
p1258
sS'chln'
p1259
S'10.39 mg'
p1260
sS'vit b3'
p1261
S'1.7 mg'
p1262
sS'vit b2'
p1263
S'0.2 mg'
p1264
sS'vit b1'
p1265
S'0.53 mg'
p1266
sS'vit b6'
p1267
S'0.42 mg'
p1268
sS'fat'
p1269
S'2.82 g'
p1270
sS'water'
p1271
S'121.8 g'
p1272
sS'vit b12'
p1273
S'0.0 mcg'
p1274
sS'copp'
p1275
S'0.5 mg'
p1276
sS'panto'
p1277
S'0.76 mg'
p1278
sS'satcals'
p1279
S'4.16 kcal'
p1280
sS'magn'
p1281
S'147.75 mg'
p1282
sS'vit e-a-toco'
p1283
S'1.17 mg'
p1284
sS'satfat'
p1285
S'0.46 g'
p1286
sS'carb'
p1287
S'57.77 g'
p1288
sS'vit a-iu'
p1289
S'6353.2 iu'
p1290
sS'chrom'
p1291
S'0.13 mcg'
p1292
sS'vit b3-ne'
p1293
S'4.58 mg'
p1294
sS'retinol'
p1295
S'0.0 mcg'
p1296
sS'vit c'
p1297
S'17.93 mg'
p1298
sS'vit k'
p1299
S'103.65 mcg'
p1300
sS'fol_dfe'
p1301
S'265.81 mcg dfe'
p1302
sS'fluor'
p1303
S'0.02 mg'
p1304
sS'phos'
p1305
S'321.46 mg'
p1306
sS'sodium'
p1307
S'770.0 mg'
p1308
sS'chol'
p1309
S'0.0 mg'
p1310
sS'monofat'
p1311
S'1.23 g'
p1312
sS'iron'
p1313
S'6.99 mg'
p1314
sS'mang'
p1315
S'1.21 mg'
p1316
sS'calc'
p1317
S'161.01 mg'
p1318
sS'omega6'
p1319
S'0.43 g'
p1320
sS'omega3'
p1321
S'0.17 g'
p1322
sS'quantity'
p1323
S'1.0 '
p1324
ssg127
g128
sg129
(dp1325
S'carrots, fresh, chopped'
p1326
S'27.54'
p1327
sS'tomato sauce, canned'
p1328
S'52.5'
p1329
sg135
S'1.54'
p1330
sS'tomatoes, crushed, canned'
p1331
S'48.6'
p1332
sS'bay leaf, dried'
p1333
S'0.07'
p1334
sS'black pepper, ground'
p1335
S'0.15'
p1336
sS'garlic, minced'
p1337
S'1.62'
p1338
sS'onion, white, fresh, chopped'
p1339
S'42.12'
p1340
sS'cumin seeds, ground'
p1341
S'0.25'
p1342
sS'lemon juice, fresh'
p1343
S'3.49'
p1344
sS'beans, small white, dry'
p1345
S'63.99'
p1346
sS'sea salt'
p1347
S'0.9922325'
p1348
sS'broth, vegetable, organic'
p1349
S'219.69'
p1350
sS'sage, fresh'
p1351
S'0.25'
p1352
sS'spinach, baby, fresh'
p1353
S'20.25'
p1354
ssg167
I0
sg168
g169
sg170
g169
sg171
S'tomato & cannellini bean soup'
p1355
sbas.