(dp0
S'white lentil, tomato & fennel faux-sotto'
p1
(lp2
(imodel
Meal
p3
(dp4
S'nutrition'
p5
(dp6
S'moly'
p7
S'10.21 mcg'
p8
sS'prot'
p9
S'17.82 g'
p10
sS'iodine'
p11
S'2.27 mcg'
p12
sS'insoluble fiber'
p13
S'12.36 g'
p14
sS'vit d-iu'
p15
S'0.0 iu'
p16
sS'alc'
p17
S'2.29 g'
p18
sS'sel'
p19
S'1.86 mcg'
p20
sS'zinc'
p21
S'2.45 mg'
p22
sS'caff'
p23
S'0.0 mg'
p24
sS'folate'
p25
S'302.43 mcg'
p26
sS'transfat'
p27
S'0.0 g'
p28
sS'wgt'
p29
S'664.21 g'
p30
sS'polyfat'
p31
S'1.2 g'
p32
sS'cals'
p33
S'436.48 kcal'
p34
sS'totsolfib'
p35
S'0.58 g'
p36
sS'sugar'
p37
S'21.59 g'
p38
sS'disacc'
p39
S'1.92 g'
p40
sS'vit a-rae'
p41
S'229.11 mcg'
p42
sS'monsac'
p43
S'4.77 g'
p44
sS'vit d-mcg'
p45
S'0.0 mcg'
p46
sS'fatcals'
p47
S'103.36 kcal'
p48
sS'biot'
p49
S'4.2 mcg'
p50
sS'caroten'
p51
S'458.22 mcg'
p52
sS'totfib'
p53
S'12.94 g'
p54
sS'betacaro'
p55
S'2698.3 mcg'
p56
sS'potassium'
p57
S'1720.41 mg'
p58
sS'ocarb'
p59
S'33.06 g'
p60
sS'chln'
p61
S'65.79 mg'
p62
sS'vit b3'
p63
S'4.77 mg'
p64
sS'vit b2'
p65
S'0.46 mg'
p66
sS'vit b1'
p67
S'0.86 mg'
p68
sS'vit b6'
p69
S'0.75 mg'
p70
sS'fat'
p71
S'11.58 g'
p72
sS'water'
p73
S'361.82 g'
p74
sS'vit b12'
p75
S'0.29 mcg'
p76
sS'copp'
p77
S'0.52 mg'
p78
sS'panto'
p79
S'2.05 mg'
p80
sS'satcals'
p81
S'47.56 kcal'
p82
sS'magn'
p83
S'96.42 mg'
p84
sS'vit e-a-toco'
p85
S'1.6 mg'
p86
sS'satfat'
p87
S'5.28 g'
p88
sS'carb'
p89
S'68.36 g'
p90
sS'vit a-iu'
p91
S'4582.07 iu'
p92
sS'chrom'
p93
S'0.09 mcg'
p94
sS'vit b3-ne'
p95
S'6.86 mg'
p96
sS'retinol'
p97
S'0.0 mcg'
p98
sS'vit c'
p99
S'536.7 mg'
p100
sS'vit k'
p101
S'73.66 mcg'
p102
sS'fol_dfe'
p103
S'302.43 mcg dfe'
p104
sS'fluor'
p105
S'0.0 mg'
p106
sS'phos'
p107
S'305.25 mg'
p108
sS'sodium'
p109
S'761.64 mg'
p110
sS'chol'
p111
S'0.0 mg'
p112
sS'monofat'
p113
S'4.38 g'
p114
sS'iron'
p115
S'7.38 mg'
p116
sS'mang'
p117
S'1.32 mg'
p118
sS'calc'
p119
S'135.31 mg'
p120
sS'omega6'
p121
S'0.89 g'
p122
sS'omega3'
p123
S'0.1 g'
p124
sS'quantity'
p125
S'1.0 '
p126
ssS'supplierID'
p127
S'Euphebe'
p128
sS'ingredients'
p129
(dp130
S'tomato'
p131
S'9.64'
p132
sS'garlic cloves'
p133
S'3.97'
p134
sS'coconut milk'
p135
S'22.6'
p136
sS'oil'
p137
S'5.4'
p138
sS'thyme'
p139
S'0.57'
p140
sS'euphebe organic vegetable stock'
p141
S'169.97'
p142
sS'nutritional yeast'
p143
S'0.25'
p144
sS'balsamic vinegar'
p145
S'6.4'
p146
sS'fennel'
p147
S'90.72'
p148
sS'black pepper'
p149
S'0.57'
p150
sS'sea salt'
p151
S'1.28'
p152
sS'white cooking wine'
p153
S'24'
p154
sS'lentils'
p155
S'45.36'
p156
sS'tomatoes'
p157
S'170.1'
p158
sS'white onion'
p159
S'113.4'
p160
ssS'_id'
p161
S''
p162
sS'type'
p163
g162
sS'quantity'
p164
I0
sS'name'
p165
S'white lentil, tomato & fennel faux-sotto'
p166
sbasS'creamy veggie pesto with red lentil penne'
p167
(lp168
(imodel
Meal
p169
(dp170
g5
(dp171
S'moly'
p172
S'1.08 mcg'
p173
sS'prot'
p174
S'19.27 g'
p175
sS'iodine'
p176
S'0.43 mcg'
p177
sS'insoluble fiber'
p178
S'11.34 g'
p179
sS'vit d-iu'
p180
S'0.0 iu'
p181
sS'alc'
p182
S'0.0 g'
p183
sS'sel'
p184
S'0.11 mcg'
p185
sS'zinc'
p186
S'0.1 mg'
p187
sS'caff'
p188
S'0.0 mg'
p189
sS'folate'
p190
S'4.54 mcg'
p191
sS'transfat'
p192
S'0.0 g'
p193
sS'wgt'
p194
S'370.87 g'
p195
sS'polyfat'
p196
S'0.2 g'
p197
sS'cals'
p198
S'294.42 kcal'
p199
sS'totsolfib'
p200
S'0.0 g'
p201
sS'sugar'
p202
S'6.38 g'
p203
sS'disacc'
p204
S'1.06 g'
p205
sS'vit a-rae'
p206
S'175.71 mcg'
p207
sS'monsac'
p208
S'1.1 g'
p209
sS'vit d-mcg'
p210
S'0.0 mcg'
p211
sS'fatcals'
p212
S'27.09 kcal'
p213
sS'biot'
p214
S'0.76 mcg'
p215
sS'caroten'
p216
S'351.43 mcg'
p217
sS'totfib'
p218
S'11.34 g'
p219
sS'betacaro'
p220
S'255.56 mcg'
p221
sS'potassium'
p222
S'790.64 mg'
p223
sS'ocarb'
p224
S'31.03 g'
p225
sS'chln'
p226
S'2.09 mg'
p227
sS'vit b3'
p228
S'0.27 mg'
p229
sS'vit b2'
p230
S'0.05 mg'
p231
sS'vit b1'
p232
S'0.22 mg'
p233
sS'vit b6'
p234
S'0.04 mg'
p235
sS'fat'
p236
S'3.07 g'
p237
sS'water'
p238
S'276.3 g'
p239
sS'vit b12'
p240
S'0.0 mcg'
p241
sS'copp'
p242
S'0.03 mg'
p243
sS'panto'
p244
S'0.16 mg'
p245
sS'satcals'
p246
S'2.36 kcal'
p247
sS'magn'
p248
S'4.5 mg'
p249
sS'vit e-a-toco'
p250
S'0.01 mg'
p251
sS'satfat'
p252
S'0.26 g'
p253
sS'carb'
p254
S'48.81 g'
p255
sS'vit a-iu'
p256
S'3514.26 iu'
p257
sS'chrom'
p258
S'0.0 mcg'
p259
sS'vit b3-ne'
p260
S'0.32 mg'
p261
sS'retinol'
p262
S'0.0 mcg'
p263
sS'vit c'
p264
S'7.17 mg'
p265
sS'vit k'
p266
S'1.63 mcg'
p267
sS'fol_dfe'
p268
S'4.54 mcg dfe'
p269
sS'fluor'
p270
S'0.0 mg'
p271
sS'phos'
p272
S'13.07 mg'
p273
sS'sodium'
p274
S'766.8 mg'
p275
sS'chol'
p276
S'0.0 mg'
p277
sS'monofat'
p278
S'0.97 g'
p279
sS'iron'
p280
S'4.4 mg'
p281
sS'mang'
p282
S'0.04 mg'
p283
sS'calc'
p284
S'65.65 mg'
p285
sS'omega6'
p286
S'0.01 g'
p287
sS'omega3'
p288
S'0.0 g'
p289
sS'quantity'
p290
S'1.0 '
p291
ssg127
g128
sg129
(dp292
S'coriander'
p293
S'0.27'
p294
sg137
S'1.33'
p295
sS'red lentils'
p296
S'63.38'
p297
sS'potato'
p298
S'15.52'
p299
sS'carrots'
p300
S'42.12'
p301
sS'cumin'
p302
S'0.27'
p303
sS'lemon juice'
p304
S'2.18'
p305
sS'garlic'
p306
S'1.35'
p307
sS'sea salt'
p308
S'1.85689225'
p309
sS'organic vegetable stock'
p310
S'221'
p311
sS'white onion'
p312
S'21.6'
p313
ssg161
g162
sg163
g162
sg164
I0
sg165
S'lemony red lentil soup'
p314
sbasS'puy lentil & cabbage burger with roasted veggies'
p315
(lp316
(imodel
Meal
p317
(dp318
g5
(dp319
S'moly'
p320
S'3.82 mcg'
p321
sS'prot'
p322
S'11.35 g'
p323
sS'iodine'
p324
S'0.53 mcg'
p325
sS'insoluble fiber'
p326
S'6.21 g'
p327
sS'vit d-iu'
p328
S'0.0 iu'
p329
sS'alc'
p330
S'0.0 g'
p331
sS'sel'
p332
S'0.35 mcg'
p333
sS'zinc'
p334
S'0.21 mg'
p335
sS'caff'
p336
S'0.0 mg'
p337
sS'folate'
p338
S'16.26 mcg'
p339
sS'transfat'
p340
S'0.0 g'
p341
sS'wgt'
p342
S'180.71 g'
p343
sS'polyfat'
p344
S'1.15 g'
p345
sS'cals'
p346
S'264.08 kcal'
p347
sS'totsolfib'
p348
S'2.07 g'
p349
sS'sugar'
p350
S'5.44 g'
p351
sS'disacc'
p352
S'1.29 g'
p353
sS'vit a-rae'
p354
S'217.1 mcg'
p355
sS'monsac'
p356
S'1.98 g'
p357
sS'vit d-mcg'
p358
S'0.0 mcg'
p359
sS'fatcals'
p360
S'44.95 kcal'
p361
sS'biot'
p362
S'1.03 mcg'
p363
sS'caroten'
p364
S'434.2 mcg'
p365
sS'totfib'
p366
S'8.28 g'
p367
sS'betacaro'
p368
S'2183.73 mcg'
p369
sS'potassium'
p370
S'333.01 mg'
p371
sS'ocarb'
p372
S'29.69 g'
p373
sS'chln'
p374
S'8.54 mg'
p375
sS'vit b3'
p376
S'0.41 mg'
p377
sS'vit b2'
p378
S'0.05 mg'
p379
sS'vit b1'
p380
S'0.18 mg'
p381
sS'vit b6'
p382
S'0.13 mg'
p383
sS'fat'
p384
S'5.03 g'
p385
sS'water'
p386
S'103.97 g'
p387
sS'vit b12'
p388
S'0.0 mcg'
p389
sS'copp'
p390
S'0.05 mg'
p391
sS'panto'
p392
S'0.15 mg'
p393
sS'satcals'
p394
S'6.81 kcal'
p395
sS'magn'
p396
S'50.34 mg'
p397
sS'vit e-a-toco'
p398
S'0.55 mg'
p399
sS'satfat'
p400
S'0.76 g'
p401
sS'carb'
p402
S'43.43 g'
p403
sS'vit a-iu'
p404
S'4341.99 iu'
p405
sS'chrom'
p406
S'0.17 mcg'
p407
sS'vit b3-ne'
p408
S'0.58 mg'
p409
sS'retinol'
p410
S'0.0 mcg'
p411
sS'vit c'
p412
S'19.6 mg'
p413
sS'vit k'
p414
S'25.59 mcg'
p415
sS'fol_dfe'
p416
S'16.26 mcg dfe'
p417
sS'fluor'
p418
S'0.03 mg'
p419
sS'phos'
p420
S'158.11 mg'
p421
sS'sodium'
p422
S'252.29 mg'
p423
sS'chol'
p424
S'0.0 mg'
p425
sS'monofat'
p426
S'2.34 g'
p427
sS'iron'
p428
S'4.11 mg'
p429
sS'mang'
p430
S'0.25 mg'
p431
sS'calc'
p432
S'76.98 mg'
p433
sS'omega6'
p434
S'0.24 g'
p435
sS'omega3'
p436
S'0.03 g'
p437
sS'quantity'
p438
S'1.0 '
p439
ssg127
g128
sg129
(dp440
S'carrots, fresh, chopped'
p441
S'24.22'
p442
sS'oats, rolled, old fashioned, dry'
p443
S'35.14'
p444
sg137
S'1.97'
p445
sS'onion, yellow, fresh, chopped'
p446
S'26.58'
p447
sS'black pepper, ground'
p448
S'0.48'
p449
sS'garlic, minced'
p450
S'1.48'
p451
sS'basil, dried, ground'
p452
S'0.61'
p453
sS'water, tap'
p454
S'34.53'
p455
sS'cumin seeds, ground'
p456
S'0.48'
p457
sS'lentil'
p458
S'28.94'
p459
sS'sea salt'
p460
S'0.57'
p461
sS'cabbage'
p462
S'25.69'
p463
ssg161
g162
sg163
g162
sg164
I0
sg165
S'puy lentil & cabbage burger'
p464
sbasS'veggie heavy spanakopita with chickpea toast and olive and almond crumble'
p465
(lp466
(imodel
Meal
p467
(dp468
g5
(dp469
S'moly'
p470
S'6.69 mcg'
p471
sS'prot'
p472
S'8.72 g'
p473
sS'iodine'
p474
S'0.71 mcg'
p475
sS'insoluble fiber'
p476
S'7.85 g'
p477
sS'vit d-iu'
p478
S'0.0 iu'
p479
sS'alc'
p480
S'0.0 g'
p481
sS'sel'
p482
S'10.05 mcg'
p483
sS'zinc'
p484
S'1.38 mg'
p485
sS'caff'
p486
S'0.0 mg'
p487
sS'folate'
p488
S'276.4 mcg'
p489
sS'transfat'
p490
S'0.0 g'
p491
sS'wgt'
p492
S'384.08 g'
p493
sS'polyfat'
p494
S'0.76 g'
p495
sS'cals'
p496
S'163.37 kcal'
p497
sS'totsolfib'
p498
S'0.37 g'
p499
sS'sugar'
p500
S'9.18 g'
p501
sS'disacc'
p502
S'0.72 g'
p503
sS'vit a-rae'
p504
S'924.75 mcg'
p505
sS'monsac'
p506
S'8.42 g'
p507
sS'vit d-mcg'
p508
S'0.0 mcg'
p509
sS'fatcals'
p510
S'56.38 kcal'
p511
sS'biot'
p512
S'4.0 mcg'
p513
sS'caroten'
p514
S'1849.51 mcg'
p515
sS'totfib'
p516
S'8.22 g'
p517
sS'betacaro'
p518
S'11072.01 mcg'
p519
sS'potassium'
p520
S'1100.82 mg'
p521
sS'ocarb'
p522
S'3.65 g'
p523
sS'chln'
p524
S'72.28 mg'
p525
sS'vit b3'
p526
S'2.39 mg'
p527
sS'vit b2'
p528
S'0.43 mg'
p529
sS'vit b1'
p530
S'0.27 mg'
p531
sS'vit b6'
p532
S'0.56 mg'
p533
sS'fat'
p534
S'6.35 g'
p535
sS'water'
p536
S'342.38 g'
p537
sS'vit b12'
p538
S'0.0 mcg'
p539
sS'copp'
p540
S'0.44 mg'
p541
sS'panto'
p542
S'0.81 mg'
p543
sS'satcals'
p544
S'7.42 kcal'
p545
sS'magn'
p546
S'148.12 mg'
p547
sS'vit e-a-toco'
p548
S'6.39 mg'
p549
sS'satfat'
p550
S'0.82 g'
p551
sS'carb'
p552
S'21.16 g'
p553
sS'vit a-iu'
p554
S'18495.06 iu'
p555
sS'chrom'
p556
S'0.33 mcg'
p557
sS'vit b3-ne'
p558
S'5.25 mg'
p559
sS'retinol'
p560
S'0.0 mcg'
p561
sS'vit c'
p562
S'52.78 mg'
p563
sS'vit k'
p564
S'620.47 mcg'
p565
sS'fol_dfe'
p566
S'276.4 mcg dfe'
p567
sS'fluor'
p568
S'0.0 mg'
p569
sS'phos'
p570
S'147.0 mg'
p571
sS'sodium'
p572
S'385.96 mg'
p573
sS'chol'
p574
S'0.0 mg'
p575
sS'monofat'
p576
S'3.42 g'
p577
sS'iron'
p578
S'4.56 mg'
p579
sS'mang'
p580
S'1.4 mg'
p581
sS'calc'
p582
S'251.98 mg'
p583
sS'omega6'
p584
S'0.59 g'
p585
sS'omega3'
p586
S'0.17 g'
p587
sS'quantity'
p588
S'1.0 '
p589
ssg127
g128
sg129
(dp590
g131
S'47.33'
p591
sS'parsley, fresh, sprigs'
p592
S'2.4'
p593
sg137
S'4.58'
p594
sS'cauliflower florets, fresh'
p595
S'50.93'
p596
sS'tomatoes, crushed, canned'
p597
S'82.65'
p598
sS'spinach'
p599
S'151.12'
p600
sS'vinegar, balsamic'
p601
S'5.42'
p602
sS'garlic, minced'
p603
S'3.84'
p604
sS'onion, white, fresh, chopped'
p605
S'35.56'
p606
sS'sea salt'
p607
S'0.26'
p608
ssg161
g162
sg163
g162
sg164
I0
sg165
S'veggie spanakopita'
p609
sba(imodel
Meal
p610
(dp611
g5
(dp612
S'moly'
p613
S'6.5 mcg'
p614
sS'prot'
p615
S'4.67 g'
p616
sS'iodine'
p617
S'0.44 mcg'
p618
sS'insoluble fiber'
p619
S'2.43 g'
p620
sS'vit d-iu'
p621
S'0.0 iu'
p622
sS'alc'
p623
S'0.0 g'
p624
sS'sel'
p625
S'0.91 mcg'
p626
sS'zinc'
p627
S'0.69 mg'
p628
sS'caff'
p629
S'0.0 mg'
p630
sS'folate'
p631
S'10.04 mcg'
p632
sS'transfat'
p633
S'0.0 g'
p634
sS'wgt'
p635
S'48.94 g'
p636
sS'polyfat'
p637
S'2.72 g'
p638
sS'cals'
p639
S'189.13 kcal'
p640
sS'totsolfib'
p641
S'0.33 g'
p642
sS'sugar'
p643
S'1.0 g'
p644
sS'disacc'
p645
S'0.89 g'
p646
sS'vit a-rae'
p647
S'0.03 mcg'
p648
sS'monsac'
p649
S'0.11 g'
p650
sS'vit d-mcg'
p651
S'0.0 mcg'
p652
sS'fatcals'
p653
S'147.23 kcal'
p654
sS'biot'
p655
S'14.12 mcg'
p656
sS'caroten'
p657
S'0.05 mcg'
p658
sS'totfib'
p659
S'2.76 g'
p660
sS'betacaro'
p661
S'0.24 mcg'
p662
sS'potassium'
p663
S'163.37 mg'
p664
sS'ocarb'
p665
S'4.16 g'
p666
sS'chln'
p667
S'11.57 mg'
p668
sS'vit b3'
p669
S'0.8 mg'
p670
sS'vit b2'
p671
S'0.25 mg'
p672
sS'vit b1'
p673
S'0.05 mg'
p674
sS'vit b6'
p675
S'0.03 mg'
p676
sS'fat'
p677
S'16.36 g'
p678
sS'water'
p679
S'2.54 g'
p680
sS'vit b12'
p681
S'0.0 mcg'
p682
sS'copp'
p683
S'0.23 mg'
p684
sS'panto'
p685
S'0.11 mg'
p686
sS'satcals'
p687
S'7.55 kcal'
p688
sS'magn'
p689
S'59.64 mg'
p690
sS'vit e-a-toco'
p691
S'5.65 mg'
p692
sS'satfat'
p693
S'0.84 g'
p694
sS'carb'
p695
S'7.92 g'
p696
sS'vit a-iu'
p697
S'0.54 iu'
p698
sS'chrom'
p699
S'0.0 mcg'
p700
sS'vit b3-ne'
p701
S'1.53 mg'
p702
sS'retinol'
p703
S'0.0 mcg'
p704
sS'vit c'
p705
S'0.66 mg'
p706
sS'vit k'
p707
S'0.0 mcg'
p708
sS'fol_dfe'
p709
S'10.04 mcg dfe'
p710
sS'fluor'
p711
S'0.0 mg'
p712
sS'phos'
p713
S'106.19 mg'
p714
sS'sodium'
p715
S'351.5 mg'
p716
sS'chol'
p717
S'0.0 mg'
p718
sS'monofat'
p719
S'6.96 g'
p720
sS'iron'
p721
S'0.82 mg'
p722
sS'mang'
p723
S'0.48 mg'
p724
sS'calc'
p725
S'59.42 mg'
p726
sS'omega6'
p727
S'2.72 g'
p728
sS'omega3'
p729
S'0.0 g'
p730
sS'quantity'
p731
S'1.0 '
p732
ssg127
g128
sg129
(dp733
S'lemon juice, fresh'
p734
S'1.69'
p735
sS'olives, kalamata'
p736
S'25.2'
p737
sS'almonds, sliced'
p738
S'22.05'
p739
ssg161
g162
sg163
g162
sg164
I0
sg165
S'olive & almond crumble'
p740
sbasS'sweet potato & black bean burger with roasted veggies'
p741
(lp742
(imodel
Meal
p743
(dp744
g5
(dp745
S'moly'
p746
S'0.0 mcg'
p747
sS'prot'
p748
S'13.43 g'
p749
sS'iodine'
p750
S'2.74 mcg'
p751
sS'insoluble fiber'
p752
S'10.28 g'
p753
sS'vit d-iu'
p754
S'0.0 iu'
p755
sS'alc'
p756
S'0.0 g'
p757
sS'sel'
p758
S'1.77 mcg'
p759
sS'zinc'
p760
S'1.97 mg'
p761
sS'caff'
p762
S'0.0 mg'
p763
sS'folate'
p764
S'201.63 mcg'
p765
sS'transfat'
p766
S'0.0 g'
p767
sS'wgt'
p768
S'161.33 g'
p769
sS'polyfat'
p770
S'0.81 g'
p771
sS'cals'
p772
S'303.92 kcal'
p773
sS'totsolfib'
p774
S'1.43 g'
p775
sS'sugar'
p776
S'7.37 g'
p777
sS'disacc'
p778
S'4.59 g'
p779
sS'vit a-rae'
p780
S'835.4 mcg'
p781
sS'monsac'
p782
S'0.94 g'
p783
sS'vit d-mcg'
p784
S'0.0 mcg'
p785
sS'fatcals'
p786
S'18.54 kcal'
p787
sS'biot'
p788
S'3.66 mcg'
p789
sS'caroten'
p790
S'1670.79 mcg'
p791
sS'totfib'
p792
S'11.71 g'
p793
sS'betacaro'
p794
S'9984.71 mcg'
p795
sS'potassium'
p796
S'1112.13 mg'
p797
sS'ocarb'
p798
S'34.97 g'
p799
sS'chln'
p800
S'39.89 mg'
p801
sS'vit b3'
p802
S'2.5 mg'
p803
sS'vit b2'
p804
S'0.2 mg'
p805
sS'vit b1'
p806
S'0.55 mg'
p807
sS'vit b6'
p808
S'0.41 mg'
p809
sS'fat'
p810
S'2.06 g'
p811
sS'water'
p812
S'71.88 g'
p813
sS'vit b12'
p814
S'0.0 mcg'
p815
sS'copp'
p816
S'0.56 mg'
p817
sS'panto'
p818
S'1.21 mg'
p819
sS'satcals'
p820
S'3.64 kcal'
p821
sS'magn'
p822
S'116.42 mg'
p823
sS'vit e-a-toco'
p824
S'0.88 mg'
p825
sS'satfat'
p826
S'0.4 g'
p827
sS'carb'
p828
S'59.7 g'
p829
sS'vit a-iu'
p830
S'16707.94 iu'
p831
sS'chrom'
p832
S'0.0 mcg'
p833
sS'vit b3-ne'
p834
S'5.02 mg'
p835
sS'retinol'
p836
S'0.0 mcg'
p837
sS'vit c'
p838
S'18.26 mg'
p839
sS'vit k'
p840
S'11.62 mcg'
p841
sS'fol_dfe'
p842
S'201.63 mcg dfe'
p843
sS'fluor'
p844
S'0.0 mg'
p845
sS'phos'
p846
S'260.75 mg'
p847
sS'sodium'
p848
S'243.93 mg'
p849
sS'chol'
p850
S'0.0 mg'
p851
sS'monofat'
p852
S'0.41 g'
p853
sS'iron'
p854
S'3.63 mg'
p855
sS'mang'
p856
S'1.01 mg'
p857
sS'calc'
p858
S'99.73 mg'
p859
sS'omega6'
p860
S'0.39 g'
p861
sS'omega3'
p862
S'0.13 g'
p863
sS'quantity'
p864
S'1.0 '
p865
ssg127
g128
sg129
(dp866
S'oats, rolled, old fashioned, dry'
p867
S'11.34'
p868
sS'onion, red, fresh'
p869
S'11.34'
p870
sS'cayenne chili pepper, dried, ground'
p871
S'0.18'
p872
sS'millet, dry'
p873
S'7.09'
p874
sS'paprika'
p875
S'0.27'
p876
sS'cumin seeds, ground'
p877
S'0.44'
p878
sS'cilantro, fresh, leaves'
p879
S'2.21'
p880
sS'chili powder, eagle, food service'
p881
S'0.35'
p882
sS'sea salt'
p883
S'0.54'
p884
sS'sweet potatoes, baked, in skin, peeled'
p885
S'85.05'
p886
sS'black beans, dry'
p887
S'42.52'
p888
ssg161
g162
sg163
g162
sg164
I0
sg165
S'sweet potato and black bean burger'
p889
sbasS'cremini & shiitake mushroom soup with rosemary oat crumble'
p890
(lp891
(imodel
Meal
p892
(dp893
g5
(dp894
S'moly'
p895
S'2.17 mcg'
p896
sS'iodine'
p897
S'0.68 mcg'
p898
sS'insoluble fiber'
p899
S'13.92 g'
p900
sS'vit d-iu'
p901
S'4.76 iu'
p902
sS'alc'
p903
S'0.57 g'
p904
sS'zinc'
p905
S'1.54 mg'
p906
sS'caff'
p907
S'0.0 mg'
p908
sS'sel'
p909
S'7.51 mcg'
p910
sS'transfat'
p911
S'0.0 g'
p912
sS'wgt'
p913
S'340.5 g'
p914
sS'polyfat'
p915
S'2.09 g'
p916
sS'totsolfib'
p917
S'0.01 g'
p918
sS'folate'
p919
S'20.47 mcg'
p920
sS'disacc'
p921
S'0.36 g'
p922
sS'vit a-rae'
p923
S'39.54 mcg'
p924
sS'monsac'
p925
S'1.78 g'
p926
sS'vit d-mcg'
p927
S'0.11 mcg'
p928
sS'fatcals'
p929
S'134.76 kcal'
p930
sS'biot'
p931
S'1.21 mcg'
p932
sS'caroten'
p933
S'79.08 mcg'
p934
sS'totfib'
p935
S'13.93 g'
p936
sS'betacaro'
p937
S'461.37 mcg'
p938
sS'potassium'
p939
S'663.99 mg'
p940
sS'ocarb'
p941
S'13.42 g'
p942
sS'chln'
p943
S'8.54 mg'
p944
sS'vit b3'
p945
S'1.83 mg'
p946
sS'vit b2'
p947
S'0.18 mg'
p948
sS'vit b1'
p949
S'0.05 mg'
p950
sS'vit b6'
p951
S'0.17 mg'
p952
sS'fat'
p953
S'15.07 g'
p954
sS'water'
p955
S'101.42 g'
p956
sS'vit b12'
p957
S'0.02 mcg'
p958
sS'copp'
p959
S'0.18 mg'
p960
sS'panto'
p961
S'0.77 mg'
p962
sS'satcals'
p963
S'21.27 kcal'
p964
sS'magn'
p965
S'57.4 mg'
p966
sS'vit e-a-toco'
p967
S'0.8 mg'
p968
sS'satfat'
p969
S'2.36 g'
p970
sS'carb'
p971
S'35.44 g'
p972
sS'vit a-iu'
p973
S'790.8 iu'
p974
sS'chrom'
p975
S'0.09 mcg'
p976
sS'vit b3-ne'
p977
S'2.22 mg'
p978
sS'retinol'
p979
S'0.0 mcg'
p980
sS'vit c'
p981
S'10.97 mg'
p982
sS'vit k'
p983
S'4.39 mcg'
p984
sS'fol_dfe'
p985
S'20.47 mcg dfe'
p986
sS'fluor'
p987
S'0.01 mg'
p988
sS'phos'
p989
S'171.41 mg'
p990
sS'sodium'
p991
S'665.44 mg'
p992
sS'chol'
p993
S'0.0 mg'
p994
sS'monofat'
p995
S'9.15 g'
p996
sS'iron'
p997
S'4.49 mg'
p998
sS'mang'
p999
S'0.24 mg'
p1000
sS'calc'
p1001
S'98.0 mg'
p1002
sS'omega6'
p1003
S'0.55 g'
p1004
sS'omega3'
p1005
S'0.05 g'
p1006
sS'quantity'
p1007
S'1.0 '
p1008
ssg127
g128
sg129
(dp1009
S'cannellini beans'
p1010
S'28.35'
p1011
sS'cashews'
p1012
S'20.78'
p1013
sS'chives'
p1014
S'2.83'
p1015
sg137
S'5.4'
p1016
sS'thyme'
p1017
S'0.57'
p1018
sS'brown mushrooms'
p1019
S'22.68'
p1020
sS'euphebe organic vegetable stock'
p1021
S'163.17'
p1022
sS'water'
p1023
S'15.78'
p1024
sS'lemon juice'
p1025
S'6.1'
p1026
sS'black pepper'
p1027
S'0.57'
p1028
sS'shallots'
p1029
S'9.41'
p1030
sS'white cooking wine'
p1031
S'6'
p1032
sS'sea salt'
p1033
S'1.59'
p1034
sS'rosemary'
p1035
S'0.57'
p1036
sS'shiitake mushrooms'
p1037
S'22.68'
p1038
sS'white onion'
p1039
S'34.02'
p1040
ssg161
g162
sg163
g162
sg164
I0
sg165
S'cremini & shiitake mushroom soup'
p1041
sbasS'creamy tomato soup with herbed garlic croutons'
p1042
(lp1043
(imodel
Meal
p1044
(dp1045
g5
(dp1046
S'moly'
p1047
S'0.0 mcg'
p1048
sS'prot'
p1049
S'2.86 g'
p1050
sS'iodine'
p1051
S'0.0 mcg'
p1052
sS'insoluble fiber'
p1053
S'2.24 g'
p1054
sS'vit d-iu'
p1055
S'0.0 iu'
p1056
sS'alc'
p1057
S'0.0 g'
p1058
sS'sel'
p1059
S'0.03 mcg'
p1060
sS'zinc'
p1061
S'0.05 mg'
p1062
sS'caff'
p1063
S'0.0 mg'
p1064
sS'folate'
p1065
S'1.32 mcg'
p1066
sS'transfat'
p1067
S'0.0 g'
p1068
sS'wgt'
p1069
S'25.66 g'
p1070
sS'polyfat'
p1071
S'0.24 g'
p1072
sS'cals'
p1073
S'75.42 kcal'
p1074
sS'totsolfib'
p1075
S'0.0 g'
p1076
sS'sugar'
p1077
S'0.02 g'
p1078
sS'disacc'
p1079
S'0.0 g'
p1080
sS'vit a-rae'
p1081
S'0.29 mcg'
p1082
sS'monsac'
p1083
S'0.01 g'
p1084
sS'vit d-mcg'
p1085
S'0.0 mcg'
p1086
sS'fatcals'
p1087
S'32.15 kcal'
p1088
sS'biot'
p1089
S'0.19 mcg'
p1090
sS'caroten'
p1091
S'0.58 mcg'
p1092
sS'totfib'
p1093
S'2.24 g'
p1094
sS'betacaro'
p1095
S'3.27 mcg'
p1096
sS'potassium'
p1097
S'80.32 mg'
p1098
sS'ocarb'
p1099
S'7.48 g'
p1100
sS'chln'
p1101
S'0.26 mg'
p1102
sS'vit b3'
p1103
S'0.66 mg'
p1104
sS'vit b2'
p1105
S'0.14 mg'
p1106
sS'vit b1'
p1107
S'0.17 mg'
p1108
sS'vit b6'
p1109
S'0.09 mg'
p1110
sS'fat'
p1111
S'3.61 g'
p1112
sS'water'
p1113
S'0.05 g'
p1114
sS'vit b12'
p1115
S'0.24 mcg'
p1116
sS'copp'
p1117
S'0.01 mg'
p1118
sS'panto'
p1119
S'0.01 mg'
p1120
sS'satcals'
p1121
S'2.89 kcal'
p1122
sS'magn'
p1123
S'2.68 mg'
p1124
sS'vit e-a-toco'
p1125
S'0.39 mg'
p1126
sS'satfat'
p1127
S'0.32 g'
p1128
sS'carb'
p1129
S'9.73 g'
p1130
sS'vit a-iu'
p1131
S'5.78 iu'
p1132
sS'chrom'
p1133
S'0.0 mcg'
p1134
sS'vit b3-ne'
p1135
S'0.68 mg'
p1136
sS'retinol'
p1137
S'0.0 mcg'
p1138
sS'vit c'
p1139
S'0.01 mg'
p1140
sS'vit k'
p1141
S'6.87 mcg'
p1142
sS'fol_dfe'
p1143
S'1.32 mcg dfe'
p1144
sS'fluor'
p1145
S'0.0 mg'
p1146
sS'phos'
p1147
S'3.06 mg'
p1148
sS'sodium'
p1149
S'44.02 mg'
p1150
sS'chol'
p1151
S'0.0 mg'
p1152
sS'monofat'
p1153
S'1.65 g'
p1154
sS'iron'
p1155
S'1.05 mg'
p1156
sS'mang'
p1157
S'0.04 mg'
p1158
sS'calc'
p1159
S'9.22 mg'
p1160
sS'omega6'
p1161
S'0.22 g'
p1162
sS'omega3'
p1163
S'0.02 g'
p1164
sS'quantity'
p1165
S'1.0 '
p1166
ssg127
g128
sg129
(dp1167
S'garlic powder'
p1168
S'0.06'
p1169
sg137
S'2.25'
p1170
sS'oregano, dried, leaves'
p1171
S'0.24'
p1172
sS'nutritional yeast'
p1173
S'0.21'
p1174
sS'basil, dried, leaves'
p1175
S'0.24'
p1176
sS'bread, sprouted whole grain & seed, ezekiel 4:9'
p1177
S'22.67'
p1178
ssg161
g162
sg163
g162
sg164
I0
sg165
S'garlic croutons'
p1179
sbasS'roasted chickpea & tahini soup'
p1180
(lp1181
(imodel
Meal
p1182
(dp1183
g5
(dp1184
S'moly'
p1185
S'1.45 mcg'
p1186
sS'prot'
p1187
S'15.25 g'
p1188
sS'iodine'
p1189
S'0.58 mcg'
p1190
sS'insoluble fiber'
p1191
S'8.27 g'
p1192
sS'vit d-iu'
p1193
S'0.0 iu'
p1194
sS'alc'
p1195
S'0.0 g'
p1196
sS'sel'
p1197
S'2.5 mcg'
p1198
sS'zinc'
p1199
S'1.64 mg'
p1200
sS'caff'
p1201
S'0.0 mg'
p1202
sS'folate'
p1203
S'312.53 mcg'
p1204
sS'transfat'
p1205
S'0.0 g'
p1206
sS'wgt'
p1207
S'421.99 g'
p1208
sS'polyfat'
p1209
S'3.76 g'
p1210
sS'cals'
p1211
S'389.34 kcal'
p1212
sS'totsolfib'
p1213
S'2.0 g'
p1214
sS'sugar'
p1215
S'8.62 g'
p1216
sS'disacc'
p1217
S'0.29 g'
p1218
sS'vit a-rae'
p1219
S'146.45 mcg'
p1220
sS'monsac'
p1221
S'0.94 g'
p1222
sS'vit d-mcg'
p1223
S'0.0 mcg'
p1224
sS'fatcals'
p1225
S'113.73 kcal'
p1226
sS'biot'
p1227
S'1.01 mcg'
p1228
sS'caroten'
p1229
S'292.9 mcg'
p1230
sS'totfib'
p1231
S'10.27 g'
p1232
sS'betacaro'
p1233
S'132.26 mcg'
p1234
sS'potassium'
p1235
S'417.55 mg'
p1236
sS'ocarb'
p1237
S'33.88 g'
p1238
sS'chln'
p1239
S'47.43 mg'
p1240
sS'vit b3'
p1241
S'1.16 mg'
p1242
sS'vit b2'
p1243
S'0.12 mg'
p1244
sS'vit b1'
p1245
S'0.34 mg'
p1246
sS'vit b6'
p1247
S'0.3 mg'
p1248
sS'fat'
p1249
S'12.64 g'
p1250
sS'water'
p1251
S'42.86 g'
p1252
sS'vit b12'
p1253
S'0.0 mcg'
p1254
sS'copp'
p1255
S'0.43 mg'
p1256
sS'panto'
p1257
S'0.77 mg'
p1258
sS'satcals'
p1259
S'15.51 kcal'
p1260
sS'magn'
p1261
S'64.09 mg'
p1262
sS'vit e-a-toco'
p1263
S'0.54 mg'
p1264
sS'satfat'
p1265
S'1.72 g'
p1266
sS'carb'
p1267
S'53.91 g'
p1268
sS'vit a-iu'
p1269
S'2929.05 iu'
p1270
sS'chrom'
p1271
S'0.08 mcg'
p1272
sS'vit b3-ne'
p1273
S'2.76 mg'
p1274
sS'retinol'
p1275
S'0.0 mcg'
p1276
sS'vit c'
p1277
S'13.78 mg'
p1278
sS'vit k'
p1279
S'121.61 mcg'
p1280
sS'fol_dfe'
p1281
S'266.98 mcg dfe'
p1282
sS'fluor'
p1283
S'0.01 mg'
p1284
sS'phos'
p1285
S'178.23 mg'
p1286
sS'sodium'
p1287
S'766.92 mg'
p1288
sS'chol'
p1289
S'0.0 mg'
p1290
sS'monofat'
p1291
S'5.2 g'
p1292
sS'iron'
p1293
S'4.9 mg'
p1294
sS'mang'
p1295
S'10.07 mg'
p1296
sS'calc'
p1297
S'153.93 mg'
p1298
sS'omega6'
p1299
S'2.76 g'
p1300
sS'omega3'
p1301
S'0.08 g'
p1302
sS'quantity'
p1303
S'1.0 '
p1304
ssg127
g128
sg129
(dp1305
S'onion, yellow, fresh, chopped'
p1306
S'28.96'
p1307
sS'cayenne chili pepper, dried, ground'
p1308
S'0.51'
p1309
sS'garlic, minced'
p1310
S'4.96'
p1311
sS'potato, yukon gold, fresh, diced'
p1312
S'70.17'
p1313
sS'broth, vegetable, low sodium'
p1314
S'215.21'
p1315
sS'cumin seeds, ground'
p1316
S'0.53'
p1317
sS'raw'
p1318
S'12.87'
p1319
sS'chickpeas, dry'
p1320
S'45.66'
p1321
sS'coriander seed, ground'
p1322
S'0.47'
p1323
sS'water, tap'
p1324
S'9.78'
p1325
sS'tahini'
p1326
S'6.64'
p1327
sS'sea salt'
p1328
S'1.53'
p1329
sS'spinach, baby, fresh'
p1330
S'24.2'
p1331
sS'black pepper, ground'
p1332
S'0.51'
p1333
ssg161
g162
sg163
g162
sg164
I0
sg165
S'roasted chickpea & tahini soup'
p1334
sbasS'tomato & cannellini bean soup'
p1335
(lp1336
(imodel
Meal
p1337
(dp1338
g5
(dp1339
S'moly'
p1340
S'3.48 mcg'
p1341
sS'prot'
p1342
S'17.11 g'
p1343
sS'iodine'
p1344
S'0.84 mcg'
p1345
sS'insoluble fiber'
p1346
S'15.98 g'
p1347
sS'vit d-iu'
p1348
S'0.0 iu'
p1349
sS'alc'
p1350
S'0.0 g'
p1351
sS'sel'
p1352
S'8.76 mcg'
p1353
sS'zinc'
p1354
S'2.06 mg'
p1355
sS'caff'
p1356
S'0.0 mg'
p1357
sS'folate'
p1358
S'303.93 mcg'
p1359
sS'transfat'
p1360
S'0.0 g'
p1361
sS'wgt'
p1362
S'473.81 g'
p1363
sS'polyfat'
p1364
S'0.59 g'
p1365
sS'cals'
p1366
S'317.67 kcal'
p1367
sS'totsolfib'
p1368
S'4.95 g'
p1369
sS'sugar'
p1370
S'9.33 g'
p1371
sS'disacc'
p1372
S'1.46 g'
p1373
sS'vit a-rae'
p1374
S'317.66 mcg'
p1375
sS'monsac'
p1376
S'3.59 g'
p1377
sS'vit d-mcg'
p1378
S'0.0 mcg'
p1379
sS'fatcals'
p1380
S'25.09 kcal'
p1381
sS'biot'
p1382
S'3.56 mcg'
p1383
sS'caroten'
p1384
S'635.32 mcg'
p1385
sS'totfib'
p1386
S'20.93 g'
p1387
sS'betacaro'
p1388
S'2422.5 mcg'
p1389
sS'potassium'
p1390
S'1447.86 mg'
p1391
sS'ocarb'
p1392
S'3.37 g'
p1393
sS'chln'
p1394
S'10.39 mg'
p1395
sS'vit b3'
p1396
S'1.7 mg'
p1397
sS'vit b2'
p1398
S'0.2 mg'
p1399
sS'vit b1'
p1400
S'0.53 mg'
p1401
sS'vit b6'
p1402
S'0.42 mg'
p1403
sS'fat'
p1404
S'2.82 g'
p1405
sS'water'
p1406
S'121.8 g'
p1407
sS'vit b12'
p1408
S'0.0 mcg'
p1409
sS'copp'
p1410
S'0.5 mg'
p1411
sS'panto'
p1412
S'0.76 mg'
p1413
sS'satcals'
p1414
S'4.16 kcal'
p1415
sS'magn'
p1416
S'147.75 mg'
p1417
sS'vit e-a-toco'
p1418
S'1.17 mg'
p1419
sS'satfat'
p1420
S'0.46 g'
p1421
sS'carb'
p1422
S'57.61 g'
p1423
sS'vit a-iu'
p1424
S'6353.2 iu'
p1425
sS'chrom'
p1426
S'0.13 mcg'
p1427
sS'vit b3-ne'
p1428
S'4.58 mg'
p1429
sS'retinol'
p1430
S'0.0 mcg'
p1431
sS'vit c'
p1432
S'17.93 mg'
p1433
sS'vit k'
p1434
S'103.65 mcg'
p1435
sS'fol_dfe'
p1436
S'265.81 mcg dfe'
p1437
sS'fluor'
p1438
S'0.02 mg'
p1439
sS'phos'
p1440
S'321.46 mg'
p1441
sS'sodium'
p1442
S'769.37 mg'
p1443
sS'chol'
p1444
S'0.0 mg'
p1445
sS'monofat'
p1446
S'1.23 g'
p1447
sS'iron'
p1448
S'6.99 mg'
p1449
sS'mang'
p1450
S'1.21 mg'
p1451
sS'calc'
p1452
S'161.01 mg'
p1453
sS'omega6'
p1454
S'0.43 g'
p1455
sS'omega3'
p1456
S'0.17 g'
p1457
sS'quantity'
p1458
S'1.0 '
p1459
ssg127
g128
sg129
(dp1460
S'carrots, fresh, chopped'
p1461
S'27.54'
p1462
sS'tomato sauce, canned'
p1463
S'52.5'
p1464
sg137
S'1.54'
p1465
sS'tomatoes, crushed, canned'
p1466
S'48.6'
p1467
sS'bay leaf, dried'
p1468
S'0.07'
p1469
sS'black pepper, ground'
p1470
S'0.15'
p1471
sS'garlic, minced'
p1472
S'1.62'
p1473
sS'onion, white, fresh, chopped'
p1474
S'42.12'
p1475
sS'euphebe organic vegetable stock'
p1476
S'210.44'
p1477
sS'cumin seeds, ground'
p1478
S'0.25'
p1479
sS'lemon juice, fresh'
p1480
S'3.49'
p1481
sS'beans, small white, dry'
p1482
S'63.99'
p1483
sS'sea salt'
p1484
S'0.99'
p1485
sS'sage, fresh'
p1486
S'0.25'
p1487
sS'spinach, baby, fresh'
p1488
S'20.25'
p1489
ssg161
g162
sg163
g162
sg164
I0
sg165
S'tomato & cannellini bean soup'
p1490
sbas.