(dp0
S'white lentil, tomato & fennel faux-sotto'
p1
(lp2
(imodel
Meal
p3
(dp4
S'nutrition'
p5
(dp6
S'moly'
p7
S'10.21 mcg'
p8
sS'prot'
p9
S'17.82 g'
p10
sS'iodine'
p11
S'2.27 mcg'
p12
sS'insoluble fiber'
p13
S'12.36 g'
p14
sS'vit d-iu'
p15
S'0.0 iu'
p16
sS'alc'
p17
S'2.29 g'
p18
sS'sel'
p19
S'1.86 mcg'
p20
sS'zinc'
p21
S'2.45 mg'
p22
sS'caff'
p23
S'0.0 mg'
p24
sS'folate'
p25
S'302.43 mcg'
p26
sS'transfat'
p27
S'0.0 g'
p28
sS'wgt'
p29
S'664.21 g'
p30
sS'polyfat'
p31
S'1.2 g'
p32
sS'cals'
p33
S'436.48 kcal'
p34
sS'totsolfib'
p35
S'0.58 g'
p36
sS'sugar'
p37
S'21.59 g'
p38
sS'disacc'
p39
S'1.92 g'
p40
sS'vit a-rae'
p41
S'229.11 mcg'
p42
sS'monsac'
p43
S'4.77 g'
p44
sS'vit d-mcg'
p45
S'0.0 mcg'
p46
sS'fatcals'
p47
S'103.36 kcal'
p48
sS'biot'
p49
S'4.2 mcg'
p50
sS'caroten'
p51
S'458.22 mcg'
p52
sS'totfib'
p53
S'12.94 g'
p54
sS'betacaro'
p55
S'2698.3 mcg'
p56
sS'potassium'
p57
S'1720.41 mg'
p58
sS'ocarb'
p59
S'33.06 g'
p60
sS'chln'
p61
S'65.79 mg'
p62
sS'vit b3'
p63
S'4.77 mg'
p64
sS'vit b2'
p65
S'0.46 mg'
p66
sS'vit b1'
p67
S'0.86 mg'
p68
sS'vit b6'
p69
S'0.75 mg'
p70
sS'fat'
p71
S'11.58 g'
p72
sS'water'
p73
S'361.82 g'
p74
sS'vit b12'
p75
S'0.29 mcg'
p76
sS'copp'
p77
S'0.52 mg'
p78
sS'panto'
p79
S'2.05 mg'
p80
sS'satcals'
p81
S'47.56 kcal'
p82
sS'magn'
p83
S'96.42 mg'
p84
sS'vit e-a-toco'
p85
S'1.6 mg'
p86
sS'satfat'
p87
S'5.28 g'
p88
sS'carb'
p89
S'68.36 g'
p90
sS'vit a-iu'
p91
S'4582.07 iu'
p92
sS'chrom'
p93
S'0.09 mcg'
p94
sS'vit b3-ne'
p95
S'6.86 mg'
p96
sS'retinol'
p97
S'0.0 mcg'
p98
sS'vit c'
p99
S'536.7 mg'
p100
sS'vit k'
p101
S'73.66 mcg'
p102
sS'fol_dfe'
p103
S'302.43 mcg dfe'
p104
sS'fluor'
p105
S'0.0 mg'
p106
sS'phos'
p107
S'305.25 mg'
p108
sS'sodium'
p109
S'761.64 mg'
p110
sS'chol'
p111
S'0.0 mg'
p112
sS'monofat'
p113
S'4.38 g'
p114
sS'iron'
p115
S'7.38 mg'
p116
sS'mang'
p117
S'1.32 mg'
p118
sS'calc'
p119
S'135.31 mg'
p120
sS'omega6'
p121
S'0.89 g'
p122
sS'omega3'
p123
S'0.1 g'
p124
sS'quantity'
p125
S'1.0 '
p126
ssS'supplierID'
p127
S'Euphebe'
p128
sS'ingredients'
p129
(dp130
S'tomato'
p131
S'9.64'
p132
sS'garlic cloves, fresh'
p133
S'3.97'
p134
sS'oil'
p135
S'5.4'
p136
sS'thyme, dried, leaves'
p137
S'0.57'
p138
sS'coconut milk, canned'
p139
S'22.6'
p140
sS'black pepper, ground'
p141
S'0.57'
p142
sS'onion, white, fresh, chopped'
p143
S'113.4'
p144
sS'euphebe organic vegetable stock'
p145
S'169.97'
p146
sS'wine, cooking, white'
p147
S'24'
p148
sS'fennel, fresh, bulb'
p149
S'90.72'
p150
sS'vinegar, balsamic'
p151
S'6.4'
p152
sS'nutritional yeast'
p153
S'0.25'
p154
sS'lentil'
p155
S'45.36'
p156
sS'sea salt'
p157
S'1.28'
p158
ssS'_id'
p159
S''
p160
sS'type'
p161
g160
sS'quantity'
p162
I0
sS'name'
p163
S'white lentil, tomato & fennel faux-sotto'
p164
sbasS'puy lentil & cabbage burger with roasted veggies'
p165
(lp166
(imodel
Meal
p167
(dp168
g5
(dp169
S'moly'
p170
S'3.82 mcg'
p171
sS'prot'
p172
S'11.35 g'
p173
sS'iodine'
p174
S'0.53 mcg'
p175
sS'insoluble fiber'
p176
S'6.21 g'
p177
sS'vit d-iu'
p178
S'0.0 iu'
p179
sS'alc'
p180
S'0.0 g'
p181
sS'sel'
p182
S'0.35 mcg'
p183
sS'zinc'
p184
S'0.21 mg'
p185
sS'caff'
p186
S'0.0 mg'
p187
sS'folate'
p188
S'16.26 mcg'
p189
sS'transfat'
p190
S'0.0 g'
p191
sS'wgt'
p192
S'180.71 g'
p193
sS'polyfat'
p194
S'1.15 g'
p195
sS'cals'
p196
S'264.08 kcal'
p197
sS'totsolfib'
p198
S'2.07 g'
p199
sS'sugar'
p200
S'5.44 g'
p201
sS'disacc'
p202
S'1.29 g'
p203
sS'vit a-rae'
p204
S'217.1 mcg'
p205
sS'monsac'
p206
S'1.98 g'
p207
sS'vit d-mcg'
p208
S'0.0 mcg'
p209
sS'fatcals'
p210
S'44.95 kcal'
p211
sS'biot'
p212
S'1.03 mcg'
p213
sS'caroten'
p214
S'434.2 mcg'
p215
sS'totfib'
p216
S'8.28 g'
p217
sS'betacaro'
p218
S'2183.73 mcg'
p219
sS'potassium'
p220
S'333.01 mg'
p221
sS'ocarb'
p222
S'29.69 g'
p223
sS'chln'
p224
S'8.54 mg'
p225
sS'vit b3'
p226
S'0.41 mg'
p227
sS'vit b2'
p228
S'0.05 mg'
p229
sS'vit b1'
p230
S'0.18 mg'
p231
sS'vit b6'
p232
S'0.13 mg'
p233
sS'fat'
p234
S'5.03 g'
p235
sS'water'
p236
S'103.97 g'
p237
sS'vit b12'
p238
S'0.0 mcg'
p239
sS'copp'
p240
S'0.05 mg'
p241
sS'panto'
p242
S'0.15 mg'
p243
sS'satcals'
p244
S'6.81 kcal'
p245
sS'magn'
p246
S'50.34 mg'
p247
sS'vit e-a-toco'
p248
S'0.55 mg'
p249
sS'satfat'
p250
S'0.76 g'
p251
sS'carb'
p252
S'43.43 g'
p253
sS'vit a-iu'
p254
S'4341.99 iu'
p255
sS'chrom'
p256
S'0.17 mcg'
p257
sS'vit b3-ne'
p258
S'0.58 mg'
p259
sS'retinol'
p260
S'0.0 mcg'
p261
sS'vit c'
p262
S'19.6 mg'
p263
sS'vit k'
p264
S'25.59 mcg'
p265
sS'fol_dfe'
p266
S'16.26 mcg dfe'
p267
sS'fluor'
p268
S'0.03 mg'
p269
sS'phos'
p270
S'158.11 mg'
p271
sS'sodium'
p272
S'252.29 mg'
p273
sS'chol'
p274
S'0.0 mg'
p275
sS'monofat'
p276
S'2.34 g'
p277
sS'iron'
p278
S'4.11 mg'
p279
sS'mang'
p280
S'0.25 mg'
p281
sS'calc'
p282
S'76.98 mg'
p283
sS'omega6'
p284
S'0.24 g'
p285
sS'omega3'
p286
S'0.03 g'
p287
sS'quantity'
p288
S'1.0 '
p289
ssg127
g128
sg129
(dp290
S'carrots, fresh, chopped'
p291
S'24.22'
p292
sS'oats, rolled, old fashioned, dry'
p293
S'35.14'
p294
sg135
S'1.97'
p295
sS'onion, yellow, fresh, chopped'
p296
S'26.58'
p297
sS'black pepper, ground'
p298
S'0.48'
p299
sS'garlic, minced'
p300
S'1.48'
p301
sS'basil, dried, ground'
p302
S'0.61'
p303
sS'water, tap'
p304
S'34.53'
p305
sS'cumin seeds, ground'
p306
S'0.48'
p307
sg155
S'28.94'
p308
sS'sea salt'
p309
S'0.57'
p310
sS'cabbage'
p311
S'25.69'
p312
ssg159
g160
sg161
g160
sg162
I0
sg163
S'puy lentil & cabbage burger'
p313
sbasS'chickpea & maitake tacos with corn tortillas'
p314
(lp315
(imodel
Meal
p316
(dp317
g5
(dp318
S'moly'
p319
S'2.54 mcg'
p320
sS'prot'
p321
S'18.56 g'
p322
sS'iodine'
p323
S'1.01 mcg'
p324
sS'insoluble fiber'
p325
S'9.21 g'
p326
sS'vit d-iu'
p327
S'1446.79 iu'
p328
sS'alc'
p329
S'0.0 g'
p330
sS'sel'
p331
S'3.09 mcg'
p332
sS'zinc'
p333
S'1.88 mg'
p334
sS'caff'
p335
S'0.0 mg'
p336
sS'folate'
p337
S'222.96 mcg'
p338
sS'transfat'
p339
S'0.0 g'
p340
sS'wgt'
p341
S'380.99 g'
p342
sS'polyfat'
p343
S'4.72 g'
p344
sS'cals'
p345
S'512.52 kcal'
p346
sS'totsolfib'
p347
S'1.3 g'
p348
sS'sugar'
p349
S'12.31 g'
p350
sS'disacc'
p351
S'0.93 g'
p352
sS'vit a-rae'
p353
S'47.18 mcg'
p354
sS'monsac'
p355
S'3.89 g'
p356
sS'vit d-mcg'
p357
S'36.2 mcg'
p358
sS'fatcals'
p359
S'239.34 kcal'
p360
sS'biot'
p361
S'1.77 mcg'
p362
sS'caroten'
p363
S'94.36 mcg'
p364
sS'totfib'
p365
S'10.51 g'
p366
sS'betacaro'
p367
S'12.35 mcg'
p368
sS'potassium'
p369
S'549.48 mg'
p370
sS'ocarb'
p371
S'25.47 g'
p372
sS'chln'
p373
S'98.34 mg'
p374
sS'vit b3'
p375
S'9.0 mg'
p376
sS'vit b2'
p377
S'0.39 mg'
p378
sS'vit b1'
p379
S'0.35 mg'
p380
sS'vit b6'
p381
S'0.29 mg'
p382
sS'fat'
p383
S'26.63 g'
p384
sS'water'
p385
S'244.83 g'
p386
sS'vit b12'
p387
S'0.0 mcg'
p388
sS'copp'
p389
S'0.55 mg'
p390
sS'panto'
p391
S'0.88 mg'
p392
sS'satcals'
p393
S'36.87 kcal'
p394
sS'magn'
p395
S'50.1 mg'
p396
sS'vit e-a-toco'
p397
S'0.57 mg'
p398
sS'satfat'
p399
S'4.1 g'
p400
sS'carb'
p401
S'48.29 g'
p402
sS'vit a-iu'
p403
S'943.6 iu'
p404
sS'chrom'
p405
S'0.0 mcg'
p406
sS'vit b3-ne'
p407
S'10.86 mg'
p408
sS'retinol'
p409
S'0.0 mcg'
p410
sS'vit c'
p411
S'18.72 mg'
p412
sS'vit k'
p413
S'58.56 mcg'
p414
sS'fol_dfe'
p415
S'201.62 mcg dfe'
p416
sS'fluor'
p417
S'0.05 mg'
p418
sS'phos'
p419
S'184.66 mg'
p420
sS'sodium'
p421
S'756.2 mg'
p422
sS'chol'
p423
S'0.0 mg'
p424
sS'monofat'
p425
S'14.47 g'
p426
sS'iron'
p427
S'5.53 mg'
p428
sS'mang'
p429
S'6.56 mg'
p430
sS'calc'
p431
S'78.45 mg'
p432
sS'omega6'
p433
S'1.11 g'
p434
sS'omega3'
p435
S'0.05 g'
p436
sS'quantity'
p437
S'1.0 '
p438
ssg127
g128
sg129
(dp439
g135
S'2.1'
p440
sS'mushrooms, maitake, fresh, diced'
p441
S'128.83'
p442
sS'poblano peppers, fresh, sliced'
p443
S'22.68'
p444
sS'garlic, minced'
p445
S'9.13'
p446
sS'onion, white, fresh, chopped'
p447
S'50.71'
p448
sS'water, tap'
p449
S'37.93'
p450
sS'raw'
p451
S'49.95'
p452
sS'chickpeas, dry'
p453
S'29.61'
p454
sS'sea salt'
p455
S'1.871067'
p456
sS'spinach, baby, fresh'
p457
S'11.34'
p458
ssg159
g160
sg161
g160
sg162
I0
sg163
S'chickpea & maitake tacos'
p459
sbasS'veggie heavy spanakopita with chickpea toast and olive and almond crumble'
p460
(lp461
(imodel
Meal
p462
(dp463
g5
(dp464
S'moly'
p465
S'6.69 mcg'
p466
sS'prot'
p467
S'8.72 g'
p468
sS'iodine'
p469
S'0.71 mcg'
p470
sS'insoluble fiber'
p471
S'7.85 g'
p472
sS'vit d-iu'
p473
S'0.0 iu'
p474
sS'alc'
p475
S'0.0 g'
p476
sS'sel'
p477
S'10.05 mcg'
p478
sS'zinc'
p479
S'1.38 mg'
p480
sS'caff'
p481
S'0.0 mg'
p482
sS'folate'
p483
S'276.4 mcg'
p484
sS'transfat'
p485
S'0.0 g'
p486
sS'wgt'
p487
S'384.08 g'
p488
sS'polyfat'
p489
S'0.76 g'
p490
sS'cals'
p491
S'163.37 kcal'
p492
sS'totsolfib'
p493
S'0.37 g'
p494
sS'sugar'
p495
S'9.18 g'
p496
sS'disacc'
p497
S'0.72 g'
p498
sS'vit a-rae'
p499
S'924.75 mcg'
p500
sS'monsac'
p501
S'8.42 g'
p502
sS'vit d-mcg'
p503
S'0.0 mcg'
p504
sS'fatcals'
p505
S'56.38 kcal'
p506
sS'biot'
p507
S'4.0 mcg'
p508
sS'caroten'
p509
S'1849.51 mcg'
p510
sS'totfib'
p511
S'8.22 g'
p512
sS'betacaro'
p513
S'11072.01 mcg'
p514
sS'potassium'
p515
S'1100.82 mg'
p516
sS'ocarb'
p517
S'3.65 g'
p518
sS'chln'
p519
S'72.28 mg'
p520
sS'vit b3'
p521
S'2.39 mg'
p522
sS'vit b2'
p523
S'0.43 mg'
p524
sS'vit b1'
p525
S'0.27 mg'
p526
sS'vit b6'
p527
S'0.56 mg'
p528
sS'fat'
p529
S'6.35 g'
p530
sS'water'
p531
S'342.38 g'
p532
sS'vit b12'
p533
S'0.0 mcg'
p534
sS'copp'
p535
S'0.44 mg'
p536
sS'panto'
p537
S'0.81 mg'
p538
sS'satcals'
p539
S'7.42 kcal'
p540
sS'magn'
p541
S'148.12 mg'
p542
sS'vit e-a-toco'
p543
S'6.39 mg'
p544
sS'satfat'
p545
S'0.82 g'
p546
sS'carb'
p547
S'21.16 g'
p548
sS'vit a-iu'
p549
S'18495.06 iu'
p550
sS'chrom'
p551
S'0.33 mcg'
p552
sS'vit b3-ne'
p553
S'5.25 mg'
p554
sS'retinol'
p555
S'0.0 mcg'
p556
sS'vit c'
p557
S'52.78 mg'
p558
sS'vit k'
p559
S'620.47 mcg'
p560
sS'fol_dfe'
p561
S'276.4 mcg dfe'
p562
sS'fluor'
p563
S'0.0 mg'
p564
sS'phos'
p565
S'147.0 mg'
p566
sS'sodium'
p567
S'385.96 mg'
p568
sS'chol'
p569
S'0.0 mg'
p570
sS'monofat'
p571
S'3.42 g'
p572
sS'iron'
p573
S'4.56 mg'
p574
sS'mang'
p575
S'1.4 mg'
p576
sS'calc'
p577
S'251.98 mg'
p578
sS'omega6'
p579
S'0.59 g'
p580
sS'omega3'
p581
S'0.17 g'
p582
sS'quantity'
p583
S'1.0 '
p584
ssg127
g128
sg129
(dp585
g131
S'47.33'
p586
sS'parsley, fresh, sprigs'
p587
S'2.4'
p588
sg135
S'4.58'
p589
sS'cauliflower florets, fresh'
p590
S'50.93'
p591
sS'tomatoes, crushed, canned'
p592
S'82.65'
p593
sS'spinach'
p594
S'151.12'
p595
sS'vinegar, balsamic'
p596
S'5.42'
p597
sS'garlic, minced'
p598
S'3.84'
p599
sS'onion, white, fresh, chopped'
p600
S'35.56'
p601
sS'sea salt'
p602
S'0.26'
p603
ssg159
g160
sg161
g160
sg162
I0
sg163
S'veggie spanakopita'
p604
sba(imodel
Meal
p605
(dp606
g5
(dp607
S'moly'
p608
S'6.5 mcg'
p609
sS'prot'
p610
S'4.67 g'
p611
sS'iodine'
p612
S'0.44 mcg'
p613
sS'insoluble fiber'
p614
S'2.43 g'
p615
sS'vit d-iu'
p616
S'0.0 iu'
p617
sS'alc'
p618
S'0.0 g'
p619
sS'sel'
p620
S'0.91 mcg'
p621
sS'zinc'
p622
S'0.69 mg'
p623
sS'caff'
p624
S'0.0 mg'
p625
sS'folate'
p626
S'10.04 mcg'
p627
sS'transfat'
p628
S'0.0 g'
p629
sS'wgt'
p630
S'48.94 g'
p631
sS'polyfat'
p632
S'2.72 g'
p633
sS'cals'
p634
S'189.13 kcal'
p635
sS'totsolfib'
p636
S'0.33 g'
p637
sS'sugar'
p638
S'1.0 g'
p639
sS'disacc'
p640
S'0.89 g'
p641
sS'vit a-rae'
p642
S'0.03 mcg'
p643
sS'monsac'
p644
S'0.11 g'
p645
sS'vit d-mcg'
p646
S'0.0 mcg'
p647
sS'fatcals'
p648
S'147.23 kcal'
p649
sS'biot'
p650
S'14.12 mcg'
p651
sS'caroten'
p652
S'0.05 mcg'
p653
sS'totfib'
p654
S'2.76 g'
p655
sS'betacaro'
p656
S'0.24 mcg'
p657
sS'potassium'
p658
S'163.37 mg'
p659
sS'ocarb'
p660
S'4.16 g'
p661
sS'chln'
p662
S'11.57 mg'
p663
sS'vit b3'
p664
S'0.8 mg'
p665
sS'vit b2'
p666
S'0.25 mg'
p667
sS'vit b1'
p668
S'0.05 mg'
p669
sS'vit b6'
p670
S'0.03 mg'
p671
sS'fat'
p672
S'16.36 g'
p673
sS'water'
p674
S'2.54 g'
p675
sS'vit b12'
p676
S'0.0 mcg'
p677
sS'copp'
p678
S'0.23 mg'
p679
sS'panto'
p680
S'0.11 mg'
p681
sS'satcals'
p682
S'7.55 kcal'
p683
sS'magn'
p684
S'59.64 mg'
p685
sS'vit e-a-toco'
p686
S'5.65 mg'
p687
sS'satfat'
p688
S'0.84 g'
p689
sS'carb'
p690
S'7.92 g'
p691
sS'vit a-iu'
p692
S'0.54 iu'
p693
sS'chrom'
p694
S'0.0 mcg'
p695
sS'vit b3-ne'
p696
S'1.53 mg'
p697
sS'retinol'
p698
S'0.0 mcg'
p699
sS'vit c'
p700
S'0.66 mg'
p701
sS'vit k'
p702
S'0.0 mcg'
p703
sS'fol_dfe'
p704
S'10.04 mcg dfe'
p705
sS'fluor'
p706
S'0.0 mg'
p707
sS'phos'
p708
S'106.19 mg'
p709
sS'sodium'
p710
S'351.5 mg'
p711
sS'chol'
p712
S'0.0 mg'
p713
sS'monofat'
p714
S'6.96 g'
p715
sS'iron'
p716
S'0.82 mg'
p717
sS'mang'
p718
S'0.48 mg'
p719
sS'calc'
p720
S'59.42 mg'
p721
sS'omega6'
p722
S'2.72 g'
p723
sS'omega3'
p724
S'0.0 g'
p725
sS'quantity'
p726
S'1.0 '
p727
ssg127
g128
sg129
(dp728
S'lemon juice, fresh'
p729
S'1.69'
p730
sS'olives, kalamata'
p731
S'25.2'
p732
sS'almonds, sliced'
p733
S'22.05'
p734
ssg159
g160
sg161
g160
sg162
I0
sg163
S'olive & almond crumble'
p735
sbasS'herby farro salad'
p736
(lp737
(imodel
Meal
p738
(dp739
g5
(dp740
S'moly'
p741
S'10.04 mcg'
p742
sS'prot'
p743
S'17.59 g'
p744
sS'iodine'
p745
S'0.04 mcg'
p746
sS'insoluble fiber'
p747
S'11.16 g'
p748
sS'vit d-iu'
p749
S'0.0 iu'
p750
sS'alc'
p751
S'0.0 g'
p752
sS'sel'
p753
S'1.21 mcg'
p754
sS'zinc'
p755
S'1.87 mg'
p756
sS'caff'
p757
S'0.0 mg'
p758
sS'folate'
p759
S'366.1 mcg'
p760
sS'transfat'
p761
S'0.0 g'
p762
sS'wgt'
p763
S'441.43 g'
p764
sS'polyfat'
p765
S'1.3 g'
p766
sS'cals'
p767
S'382.27 kcal'
p768
sS'totsolfib'
p769
S'2.19 g'
p770
sS'sugar'
p771
S'11.0 g'
p772
sS'disacc'
p773
S'0.14 g'
p774
sS'vit a-rae'
p775
S'168.31 mcg'
p776
sS'monsac'
p777
S'5.27 g'
p778
sS'vit d-mcg'
p779
S'0.0 mcg'
p780
sS'fatcals'
p781
S'88.32 kcal'
p782
sS'biot'
p783
S'0.76 mcg'
p784
sS'caroten'
p785
S'336.62 mcg'
p786
sS'totfib'
p787
S'13.35 g'
p788
sS'betacaro'
p789
S'623.02 mcg'
p790
sS'potassium'
p791
S'897.5 mg'
p792
sS'ocarb'
p793
S'33.37 g'
p794
sS'chln'
p795
S'76.9 mg'
p796
sS'vit b3'
p797
S'2.53 mg'
p798
sS'vit b2'
p799
S'0.25 mg'
p800
sS'vit b1'
p801
S'0.34 mg'
p802
sS'vit b6'
p803
S'0.59 mg'
p804
sS'fat'
p805
S'9.81 g'
p806
sS'water'
p807
S'214.42 g'
p808
sS'vit b12'
p809
S'0.0 mcg'
p810
sS'copp'
p811
S'0.5 mg'
p812
sS'panto'
p813
S'1.37 mg'
p814
sS'satcals'
p815
S'16.66 kcal'
p816
sS'magn'
p817
S'99.27 mg'
p818
sS'vit e-a-toco'
p819
S'1.9 mg'
p820
sS'satfat'
p821
S'1.85 g'
p822
sS'carb'
p823
S'59.29 g'
p824
sS'vit a-iu'
p825
S'3366.24 iu'
p826
sS'chrom'
p827
S'0.16 mcg'
p828
sS'vit b3-ne'
p829
S'4.53 mg'
p830
sS'retinol'
p831
S'0.0 mcg'
p832
sS'vit c'
p833
S'108.19 mg'
p834
sS'vit k'
p835
S'243.34 mcg'
p836
sS'fol_dfe'
p837
S'302.57 mcg dfe'
p838
sS'fluor'
p839
S'0.0 mg'
p840
sS'phos'
p841
S'191.34 mg'
p842
sS'sodium'
p843
S'763.9 mg'
p844
sS'chol'
p845
S'0.0 mg'
p846
sS'monofat'
p847
S'0.63 g'
p848
sS'iron'
p849
S'6.24 mg'
p850
sS'mang'
p851
S'9.51 mg'
p852
sS'calc'
p853
S'168.93 mg'
p854
sS'omega6'
p855
S'1.18 g'
p856
sS'omega3'
p857
S'0.12 g'
p858
sS'quantity'
p859
S'1.0 '
p860
ssg127
g128
sg129
(dp861
S'wheat, farro, dry'
p862
S'23.79'
p863
sS'cauliflower florets, fresh'
p864
S'38.64'
p865
sS'tomatoes, crushed, canned'
p866
S'67.5'
p867
sS'onion, yellow, fresh, chopped'
p868
S'2.11'
p869
sS'black pepper, ground'
p870
S'1.01'
p871
sS'garlic, minced'
p872
S'1.86'
p873
sS'oregano, dried, leaves'
p874
S'1.01'
p875
sS'lemon juice, fresh'
p876
S'10.53'
p877
sS'chickpeas, dry'
p878
S'40.33'
p879
sS'broccoli rabe stalk, fresh'
p880
S'25.82'
p881
sS'pine nuts'
p882
S'10.12'
p883
sS'bell pepper, yellow, fresh, large, 3 3/4"'
p884
S'28.86'
p885
sS'broth, vegetable, organic'
p886
S'99.99'
p887
sS'sea salt'
p888
S'1.4458245'
p889
sS'spinach, baby, fresh'
p890
S'33.75'
p891
sS'zucchini'
p892
S'54.67'
p893
ssg159
g160
sg161
g160
sg162
I0
sg163
S'tuscan farro salad'
p894
sbasS'cremini & shiitake mushroom soup with rosemary oat crumble'
p895
(lp896
(imodel
Meal
p897
(dp898
g5
(dp899
S'moly'
p900
S'2.17 mcg'
p901
sS'prot'
p902
S'12.76 g'
p903
sS'iodine'
p904
S'0.68 mcg'
p905
sS'insoluble fiber'
p906
S'13.92 g'
p907
sS'vit d-iu'
p908
S'4.76 iu'
p909
sS'alc'
p910
S'0.57 g'
p911
sS'sel'
p912
S'7.51 mcg'
p913
sS'zinc'
p914
S'1.54 mg'
p915
sS'caff'
p916
S'0.0 mg'
p917
sS'folate'
p918
S'20.47 mcg'
p919
sS'transfat'
p920
S'0.0 g'
p921
sS'wgt'
p922
S'340.5 g'
p923
sS'polyfat'
p924
S'2.09 g'
p925
sS'cals'
p926
S'326.05 kcal'
p927
sS'totsolfib'
p928
S'0.01 g'
p929
sS'sugar'
p930
S'7.22 g'
p931
sS'disacc'
p932
S'0.36 g'
p933
sS'vit a-rae'
p934
S'39.54 mcg'
p935
sS'monsac'
p936
S'1.78 g'
p937
sS'vit d-mcg'
p938
S'0.11 mcg'
p939
sS'fatcals'
p940
S'134.76 kcal'
p941
sS'biot'
p942
S'1.21 mcg'
p943
sS'caroten'
p944
S'79.08 mcg'
p945
sS'totfib'
p946
S'13.93 g'
p947
sS'betacaro'
p948
S'461.37 mcg'
p949
sS'potassium'
p950
S'663.99 mg'
p951
sS'ocarb'
p952
S'13.42 g'
p953
sS'chln'
p954
S'8.54 mg'
p955
sS'vit b3'
p956
S'1.83 mg'
p957
sS'vit b2'
p958
S'0.18 mg'
p959
sS'vit b1'
p960
S'0.05 mg'
p961
sS'vit b6'
p962
S'0.17 mg'
p963
sS'fat'
p964
S'15.07 g'
p965
sS'water'
p966
S'101.42 g'
p967
sS'vit b12'
p968
S'0.02 mcg'
p969
sS'copp'
p970
S'0.18 mg'
p971
sS'panto'
p972
S'0.77 mg'
p973
sS'satcals'
p974
S'21.27 kcal'
p975
sS'magn'
p976
S'57.4 mg'
p977
sS'vit e-a-toco'
p978
S'0.8 mg'
p979
sS'satfat'
p980
S'2.36 g'
p981
sS'carb'
p982
S'35.44 g'
p983
sS'vit a-iu'
p984
S'790.8 iu'
p985
sS'chrom'
p986
S'0.09 mcg'
p987
sS'vit b3-ne'
p988
S'2.22 mg'
p989
sS'retinol'
p990
S'0.0 mcg'
p991
sS'vit c'
p992
S'10.97 mg'
p993
sS'vit k'
p994
S'4.39 mcg'
p995
sS'fol_dfe'
p996
S'20.47 mcg dfe'
p997
sS'fluor'
p998
S'0.01 mg'
p999
sS'phos'
p1000
S'171.41 mg'
p1001
sS'sodium'
p1002
S'665.44 mg'
p1003
sS'chol'
p1004
S'0.0 mg'
p1005
sS'monofat'
p1006
S'9.15 g'
p1007
sS'iron'
p1008
S'4.49 mg'
p1009
sS'mang'
p1010
S'0.24 mg'
p1011
sS'calc'
p1012
S'98.0 mg'
p1013
sS'omega6'
p1014
S'0.55 g'
p1015
sS'omega3'
p1016
S'0.05 g'
p1017
sS'quantity'
p1018
S'1.0 '
p1019
ssg127
g128
sg129
(dp1020
g451
S'20.78'
p1021
sS'cannellini beans, dry'
p1022
S'28.35'
p1023
sg135
S'5.4'
p1024
sS'thyme, fresh'
p1025
S'0.57'
p1026
sS'black pepper, ground'
p1027
S'0.57'
p1028
sS'sea salt'
p1029
S'1.59'
p1030
sS'onion, white, fresh, chopped'
p1031
S'34.02'
p1032
sS'water, tap'
p1033
S'15.78'
p1034
sS'mushrooms, shiitake, fresh'
p1035
S'22.68'
p1036
sS'wine, cooking, white'
p1037
S'6'
p1038
sS'lemon juice, fresh'
p1039
S'6.1'
p1040
sS'rosemary, fresh'
p1041
S'0.57'
p1042
sS'shallots, fresh, chopped'
p1043
S'9.41'
p1044
sS'chives, ground'
p1045
S'2.83'
p1046
sS'mushrooms, brown, fresh, sliced'
p1047
S'22.68'
p1048
sS'euphebe organic vegetable stock'
p1049
S'163.17'
p1050
ssg159
g160
sg161
g160
sg162
I0
sg163
S'cremini & shiitake mushroom soup'
p1051
sbasS'creamy tomato soup with herbed garlic croutons'
p1052
(lp1053
(imodel
Meal
p1054
(dp1055
g5
(dp1056
S'moly'
p1057
S'0.0 mcg'
p1058
sS'prot'
p1059
S'2.86 g'
p1060
sS'iodine'
p1061
S'0.0 mcg'
p1062
sS'insoluble fiber'
p1063
S'2.24 g'
p1064
sS'vit d-iu'
p1065
S'0.0 iu'
p1066
sS'alc'
p1067
S'0.0 g'
p1068
sS'sel'
p1069
S'0.03 mcg'
p1070
sS'zinc'
p1071
S'0.05 mg'
p1072
sS'caff'
p1073
S'0.0 mg'
p1074
sS'folate'
p1075
S'1.32 mcg'
p1076
sS'transfat'
p1077
S'0.0 g'
p1078
sS'wgt'
p1079
S'25.66 g'
p1080
sS'polyfat'
p1081
S'0.24 g'
p1082
sS'cals'
p1083
S'75.42 kcal'
p1084
sS'totsolfib'
p1085
S'0.0 g'
p1086
sS'sugar'
p1087
S'0.02 g'
p1088
sS'disacc'
p1089
S'0.0 g'
p1090
sS'vit a-rae'
p1091
S'0.29 mcg'
p1092
sS'monsac'
p1093
S'0.01 g'
p1094
sS'vit d-mcg'
p1095
S'0.0 mcg'
p1096
sS'fatcals'
p1097
S'32.15 kcal'
p1098
sS'biot'
p1099
S'0.19 mcg'
p1100
sS'caroten'
p1101
S'0.58 mcg'
p1102
sS'totfib'
p1103
S'2.24 g'
p1104
sS'betacaro'
p1105
S'3.27 mcg'
p1106
sS'potassium'
p1107
S'80.32 mg'
p1108
sS'ocarb'
p1109
S'7.48 g'
p1110
sS'chln'
p1111
S'0.26 mg'
p1112
sS'vit b3'
p1113
S'0.66 mg'
p1114
sS'vit b2'
p1115
S'0.14 mg'
p1116
sS'vit b1'
p1117
S'0.17 mg'
p1118
sS'vit b6'
p1119
S'0.09 mg'
p1120
sS'fat'
p1121
S'3.61 g'
p1122
sS'water'
p1123
S'0.05 g'
p1124
sS'vit b12'
p1125
S'0.24 mcg'
p1126
sS'copp'
p1127
S'0.01 mg'
p1128
sS'panto'
p1129
S'0.01 mg'
p1130
sS'satcals'
p1131
S'2.89 kcal'
p1132
sS'magn'
p1133
S'2.68 mg'
p1134
sS'vit e-a-toco'
p1135
S'0.39 mg'
p1136
sS'satfat'
p1137
S'0.32 g'
p1138
sS'carb'
p1139
S'9.73 g'
p1140
sS'vit a-iu'
p1141
S'5.78 iu'
p1142
sS'chrom'
p1143
S'0.0 mcg'
p1144
sS'vit b3-ne'
p1145
S'0.68 mg'
p1146
sS'retinol'
p1147
S'0.0 mcg'
p1148
sS'vit c'
p1149
S'0.01 mg'
p1150
sS'vit k'
p1151
S'6.87 mcg'
p1152
sS'fol_dfe'
p1153
S'1.32 mcg dfe'
p1154
sS'fluor'
p1155
S'0.0 mg'
p1156
sS'phos'
p1157
S'3.06 mg'
p1158
sS'sodium'
p1159
S'44.02 mg'
p1160
sS'chol'
p1161
S'0.0 mg'
p1162
sS'monofat'
p1163
S'1.65 g'
p1164
sS'iron'
p1165
S'1.05 mg'
p1166
sS'mang'
p1167
S'0.04 mg'
p1168
sS'calc'
p1169
S'9.22 mg'
p1170
sS'omega6'
p1171
S'0.22 g'
p1172
sS'omega3'
p1173
S'0.02 g'
p1174
sS'quantity'
p1175
S'1.0 '
p1176
ssg127
g128
sg129
(dp1177
S'garlic powder'
p1178
S'0.06'
p1179
sg135
S'2.25'
p1180
sS'oregano, dried, leaves'
p1181
S'0.24'
p1182
sS'nutritional yeast'
p1183
S'0.21'
p1184
sS'basil, dried, leaves'
p1185
S'0.24'
p1186
sS'bread, sprouted whole grain & seed, ezekiel 4:9'
p1187
S'22.67'
p1188
ssg159
g160
sg161
g160
sg162
I0
sg163
S'garlic croutons'
p1189
sbasS'roasted chickpea & tahini soup'
p1190
(lp1191
(imodel
Meal
p1192
(dp1193
g5
(dp1194
S'moly'
p1195
S'1.45 mcg'
p1196
sS'prot'
p1197
S'15.25 g'
p1198
sS'iodine'
p1199
S'0.58 mcg'
p1200
sS'insoluble fiber'
p1201
S'8.27 g'
p1202
sS'vit d-iu'
p1203
S'0.0 iu'
p1204
sS'alc'
p1205
S'0.0 g'
p1206
sS'sel'
p1207
S'2.5 mcg'
p1208
sS'zinc'
p1209
S'1.64 mg'
p1210
sS'caff'
p1211
S'0.0 mg'
p1212
sS'folate'
p1213
S'312.53 mcg'
p1214
sS'transfat'
p1215
S'0.0 g'
p1216
sS'wgt'
p1217
S'421.99 g'
p1218
sS'polyfat'
p1219
S'3.76 g'
p1220
sS'cals'
p1221
S'389.34 kcal'
p1222
sS'totsolfib'
p1223
S'2.0 g'
p1224
sS'sugar'
p1225
S'8.62 g'
p1226
sS'disacc'
p1227
S'0.29 g'
p1228
sS'vit a-rae'
p1229
S'146.45 mcg'
p1230
sS'monsac'
p1231
S'0.94 g'
p1232
sS'vit d-mcg'
p1233
S'0.0 mcg'
p1234
sS'fatcals'
p1235
S'113.73 kcal'
p1236
sS'biot'
p1237
S'1.01 mcg'
p1238
sS'caroten'
p1239
S'292.9 mcg'
p1240
sS'totfib'
p1241
S'10.27 g'
p1242
sS'betacaro'
p1243
S'132.26 mcg'
p1244
sS'potassium'
p1245
S'417.55 mg'
p1246
sS'ocarb'
p1247
S'33.88 g'
p1248
sS'chln'
p1249
S'47.43 mg'
p1250
sS'vit b3'
p1251
S'1.16 mg'
p1252
sS'vit b2'
p1253
S'0.12 mg'
p1254
sS'vit b1'
p1255
S'0.34 mg'
p1256
sS'vit b6'
p1257
S'0.3 mg'
p1258
sS'fat'
p1259
S'12.64 g'
p1260
sS'water'
p1261
S'42.86 g'
p1262
sS'vit b12'
p1263
S'0.0 mcg'
p1264
sS'copp'
p1265
S'0.43 mg'
p1266
sS'panto'
p1267
S'0.77 mg'
p1268
sS'satcals'
p1269
S'15.51 kcal'
p1270
sS'magn'
p1271
S'64.09 mg'
p1272
sS'vit e-a-toco'
p1273
S'0.54 mg'
p1274
sS'satfat'
p1275
S'1.72 g'
p1276
sS'carb'
p1277
S'53.91 g'
p1278
sS'vit a-iu'
p1279
S'2929.05 iu'
p1280
sS'chrom'
p1281
S'0.08 mcg'
p1282
sS'vit b3-ne'
p1283
S'2.76 mg'
p1284
sS'retinol'
p1285
S'0.0 mcg'
p1286
sS'vit c'
p1287
S'13.78 mg'
p1288
sS'vit k'
p1289
S'121.61 mcg'
p1290
sS'fol_dfe'
p1291
S'266.98 mcg dfe'
p1292
sS'fluor'
p1293
S'0.01 mg'
p1294
sS'phos'
p1295
S'178.23 mg'
p1296
sS'sodium'
p1297
S'766.92 mg'
p1298
sS'chol'
p1299
S'0.0 mg'
p1300
sS'monofat'
p1301
S'5.2 g'
p1302
sS'iron'
p1303
S'4.9 mg'
p1304
sS'mang'
p1305
S'10.07 mg'
p1306
sS'calc'
p1307
S'153.93 mg'
p1308
sS'omega6'
p1309
S'2.76 g'
p1310
sS'omega3'
p1311
S'0.08 g'
p1312
sS'quantity'
p1313
S'1.0 '
p1314
ssg127
g128
sg129
(dp1315
S'onion, yellow, fresh, chopped'
p1316
S'28.96'
p1317
sS'cayenne chili pepper, dried, ground'
p1318
S'0.51'
p1319
sS'garlic, minced'
p1320
S'4.96'
p1321
sS'potato, yukon gold, fresh, diced'
p1322
S'70.17'
p1323
sS'broth, vegetable, low sodium'
p1324
S'215.21'
p1325
sS'cumin seeds, ground'
p1326
S'0.53'
p1327
sg451
S'12.87'
p1328
sS'chickpeas, dry'
p1329
S'45.66'
p1330
sS'coriander seed, ground'
p1331
S'0.47'
p1332
sS'water, tap'
p1333
S'9.78'
p1334
sS'tahini'
p1335
S'6.64'
p1336
sS'sea salt'
p1337
S'1.53'
p1338
sS'spinach, baby, fresh'
p1339
S'24.2'
p1340
sS'black pepper, ground'
p1341
S'0.51'
p1342
ssg159
g160
sg161
g160
sg162
I0
sg163
S'roasted chickpea & tahini soup'
p1343
sbasS'tomato & cannellini bean soup'
p1344
(lp1345
(imodel
Meal
p1346
(dp1347
g5
(dp1348
S'moly'
p1349
S'3.48 mcg'
p1350
sS'prot'
p1351
S'17.16 g'
p1352
sS'iodine'
p1353
S'0.84 mcg'
p1354
sS'insoluble fiber'
p1355
S'16.03 g'
p1356
sS'vit d-iu'
p1357
S'0.0 iu'
p1358
sS'alc'
p1359
S'0.0 g'
p1360
sS'sel'
p1361
S'8.76 mcg'
p1362
sS'zinc'
p1363
S'2.06 mg'
p1364
sS'caff'
p1365
S'0.0 mg'
p1366
sS'folate'
p1367
S'303.93 mcg'
p1368
sS'transfat'
p1369
S'0.0 g'
p1370
sS'wgt'
p1371
S'483.05 g'
p1372
sS'polyfat'
p1373
S'0.59 g'
p1374
sS'cals'
p1375
S'318.45 kcal'
p1376
sS'totsolfib'
p1377
S'4.95 g'
p1378
sS'sugar'
p1379
S'8.51 g'
p1380
sS'disacc'
p1381
S'1.46 g'
p1382
sS'vit a-rae'
p1383
S'317.66 mcg'
p1384
sS'monsac'
p1385
S'3.59 g'
p1386
sS'vit d-mcg'
p1387
S'0.0 mcg'
p1388
sS'fatcals'
p1389
S'25.09 kcal'
p1390
sS'biot'
p1391
S'3.56 mcg'
p1392
sS'caroten'
p1393
S'635.32 mcg'
p1394
sS'totfib'
p1395
S'20.98 g'
p1396
sS'betacaro'
p1397
S'2422.5 mcg'
p1398
sS'potassium'
p1399
S'1447.86 mg'
p1400
sS'ocarb'
p1401
S'4.3 g'
p1402
sS'chln'
p1403
S'10.39 mg'
p1404
sS'vit b3'
p1405
S'1.7 mg'
p1406
sS'vit b2'
p1407
S'0.2 mg'
p1408
sS'vit b1'
p1409
S'0.53 mg'
p1410
sS'vit b6'
p1411
S'0.42 mg'
p1412
sS'fat'
p1413
S'2.82 g'
p1414
sS'water'
p1415
S'121.8 g'
p1416
sS'vit b12'
p1417
S'0.0 mcg'
p1418
sS'copp'
p1419
S'0.5 mg'
p1420
sS'panto'
p1421
S'0.76 mg'
p1422
sS'satcals'
p1423
S'4.16 kcal'
p1424
sS'magn'
p1425
S'147.75 mg'
p1426
sS'vit e-a-toco'
p1427
S'1.17 mg'
p1428
sS'satfat'
p1429
S'0.46 g'
p1430
sS'carb'
p1431
S'57.77 g'
p1432
sS'vit a-iu'
p1433
S'6353.2 iu'
p1434
sS'chrom'
p1435
S'0.13 mcg'
p1436
sS'vit b3-ne'
p1437
S'4.58 mg'
p1438
sS'retinol'
p1439
S'0.0 mcg'
p1440
sS'vit c'
p1441
S'17.93 mg'
p1442
sS'vit k'
p1443
S'103.65 mcg'
p1444
sS'fol_dfe'
p1445
S'265.81 mcg dfe'
p1446
sS'fluor'
p1447
S'0.02 mg'
p1448
sS'phos'
p1449
S'321.46 mg'
p1450
sS'sodium'
p1451
S'770.0 mg'
p1452
sS'chol'
p1453
S'0.0 mg'
p1454
sS'monofat'
p1455
S'1.23 g'
p1456
sS'iron'
p1457
S'6.99 mg'
p1458
sS'mang'
p1459
S'1.21 mg'
p1460
sS'calc'
p1461
S'161.01 mg'
p1462
sS'omega6'
p1463
S'0.43 g'
p1464
sS'omega3'
p1465
S'0.17 g'
p1466
sS'quantity'
p1467
S'1.0 '
p1468
ssg127
g128
sg129
(dp1469
S'carrots, fresh, chopped'
p1470
S'27.54'
p1471
sS'tomato sauce, canned'
p1472
S'52.5'
p1473
sg135
S'1.54'
p1474
sS'tomatoes, crushed, canned'
p1475
S'48.6'
p1476
sS'bay leaf, dried'
p1477
S'0.07'
p1478
sS'black pepper, ground'
p1479
S'0.15'
p1480
sS'garlic, minced'
p1481
S'1.62'
p1482
sS'onion, white, fresh, chopped'
p1483
S'42.12'
p1484
sS'cumin seeds, ground'
p1485
S'0.25'
p1486
sS'lemon juice, fresh'
p1487
S'3.49'
p1488
sS'beans, small white, dry'
p1489
S'63.99'
p1490
sS'sea salt'
p1491
S'0.9922325'
p1492
sS'broth, vegetable, organic'
p1493
S'219.69'
p1494
sS'sage, fresh'
p1495
S'0.25'
p1496
sS'spinach, baby, fresh'
p1497
S'20.25'
p1498
ssg159
g160
sg161
g160
sg162
I0
sg163
S'tomato & cannellini bean soup'
p1499
sbas.