(dp0
S'Avocado'
p1
(lp2
S'avocado'
p3
asS'Celery'
p4
(lp5
S'celery'
p6
aS'celery root'
p7
asS'Brussel Sprouts'
p8
(lp9
S'brussels sprouts'
p10
aS'brussels sprouts, fresh'
p11
asS'Peppers'
p12
(lp13
S'Black Pepper'
p14
aS'Black pepper'
p15
aS'black pepper'
p16
aS'poblano peppers'
p17
aS'capers'
p18
aS'jalapeno peppers'
p19
aS'bell pepper'
p20
asS'Cauliflower'
p21
(lp22
S'Cooked cauliflower'
p23
aS'cauliflower'
p24
asS'Potassium'
p25
(lp26
S'Potassium, K'
p27
asS'Garlic'
p28
(lp29
S'Garlic powder'
p30
aS'Garlic. Raw'
p31
aS'garlic'
p32
aS'garlic '
p33
aS'garlic powder'
p34
aS'garlic, minced'
p35
asS'Cabbage'
p36
(lp37
S'Green cabbage. raw'
p38
aS'Red cabbage. raw'
p39
aS'Red cabbage. Raw'
p40
aS'Green cabbage. Raw'
p41
asS'Turmeric (Curcumin)'
p42
(lp43
S'turmeric, ground'
p44
asS'Tomato'
p45
(lp46
S'Sundried tomatoes'
p47
aS'tomatoes'
p48
aS'tomato sauce'
p49
asS'Oil, butter'
p50
(lp51
S'oil, coconut'
p52
asS'Beets'
p53
(lp54
S'Beets. Raw'
p55
asS'Coconut Oil'
p56
(lp57
S'coconut oil'
p58
ag52
asS'Vitamin K'
p59
(lp60
S'Vitamin K (phylloquinone)'
p61
aS'Vit K'
p62
asS'Berries'
p63
(lp64
S'Goji berries. dried'
p65
aS'Raw blueberries'
p66
aS'Strawberries'
p67
asS'Salt'
p68
(lp69
S'Table salt'
p70
aS'Table Salt'
p71
aS'sea salt'
p72
aS'Sea Salt'
p73
asS'Omega3'
p74
(lp75
S'Omega3'
p76
asS'Bananas'
p77
(lp78
S'Raw banana'
p79
asS'Carrots'
p80
(lp81
S'Carrot Raw'
p82
aS'Cooked carrots'
p83
aS'carrots'
p84
aS'carrots, fresh'
p85
asS'Ginger'
p86
(lp87
S'ginger root'
p88
asS'Broccoli'
p89
(lp90
S'Cooked broccoli'
p91
asS'Onions'
p92
(lp93
S'Onion Powder'
p94
aS'Red onion'
p95
aS'red onion'
p96
as.