(dp0
S'Tomato'
p1
(lp2
S'Sundried tomatoes'
p3
asS'Cauliflower'
p4
(lp5
S'Cooked cauliflower'
p6
asS'Beets'
p7
(lp8
S'Beets. Raw'
p9
asS'Onions'
p10
(lp11
S'Onion Powder'
p12
aS'Red onion'
p13
asS'Potassium'
p14
(lp15
S'Potassium, K'
p16
asS'Carrots'
p17
(lp18
S'Carrot Raw'
p19
aS'Cooked carrots'
p20
asS'Peppers'
p21
(lp22
S'Black Pepper'
p23
aS'Black pepper'
p24
asS'Garlic'
p25
(lp26
S'Garlic powder'
p27
aS'Garlic. Raw'
p28
asS'Vitamin K'
p29
(lp30
S'Vitamin K (phylloquinone)'
p31
asS'Cabbage'
p32
(lp33
S'Green cabbage. raw'
p34
aS'Red cabbage. raw'
p35
aS'Red cabbage. Raw'
p36
aS'Green cabbage. Raw'
p37
asS'Berries'
p38
(lp39
S'Goji berries. dried'
p40
aS'Raw blueberries'
p41
aS'Strawberries'
p42
asS'Salt'
p43
(lp44
S'Table salt'
p45
aS'Table Salt'
p46
asS'Broccoli'
p47
(lp48
S'Cooked broccoli'
p49
asS'Bananas'
p50
(lp51
S'Raw banana'
p52
as.