(dp0
S'white lentil, tomato & fennel faux-sotto'
p1
(lp2
(imodel
Meal
p3
(dp4
S'nutrition'
p5
(dp6
S'moly'
p7
S'10.21 mcg'
p8
sS'sodium'
p9
S'761.64 mg'
p10
sS'cals'
p11
S'436.48 kcal'
p12
sS'iodine'
p13
S'2.27 mcg'
p14
sS'chol'
p15
S'0.0 mg'
p16
sS'vit d-iu'
p17
S'0.0 iu'
p18
sS'alc'
p19
S'2.29 g'
p20
sS'zinc'
p21
S'2.45 mg'
p22
sS'caff'
p23
S'0.0 mg'
p24
sS'sel'
p25
S'1.86 mcg'
p26
sS'transfat'
p27
S'0.0 g'
p28
sS'wgt'
p29
S'664.21 g'
p30
sS'polyfat'
p31
S'1.2 g'
p32
sS'sugar'
p33
S'21.59 g'
p34
sS'prot'
p35
S'17.82 g'
p36
sS'totsolfib'
p37
S'0.58 g'
p38
sS'folate'
p39
S'302.43 mcg'
p40
sS'disacc'
p41
S'1.92 g'
p42
sS'vit a-rae'
p43
S'229.11 mcg'
p44
sS'monsac'
p45
S'4.77 g'
p46
sS'vit d-mcg'
p47
S'0.0 mcg'
p48
sS'fatcals'
p49
S'103.36 kcal'
p50
sS'biot'
p51
S'4.2 mcg'
p52
sS'caroten'
p53
S'458.22 mcg'
p54
sS'totfib'
p55
S'12.94 g'
p56
sS'betacaro'
p57
S'2698.3 mcg'
p58
sS'vit b1'
p59
S'0.86 mg'
p60
sS'ocarb'
p61
S'33.06 g'
p62
sS'vit b3'
p63
S'4.77 mg'
p64
sS'vit b2'
p65
S'0.46 mg'
p66
sS'potassium'
p67
S'1720.41 mg'
p68
sS'vit b6'
p69
S'0.75 mg'
p70
sS'fat'
p71
S'11.58 g'
p72
sS'water'
p73
S'361.82 g'
p74
sS'vit b12'
p75
S'0.29 mcg'
p76
sS'copp'
p77
S'0.52 mg'
p78
sS'panto'
p79
S'2.05 mg'
p80
sS'satcals'
p81
S'47.56 kcal'
p82
sS'magn'
p83
S'96.42 mg'
p84
sS'vit e-a-toco'
p85
S'1.6 mg'
p86
sS'satfat'
p87
S'5.28 g'
p88
sS'carb'
p89
S'68.36 g'
p90
sS'vit a-iu'
p91
S'4582.07 iu'
p92
sS'chrom'
p93
S'0.09 mcg'
p94
sS'vit b3-ne'
p95
S'6.86 mg'
p96
sS'retinol'
p97
S'0.0 mcg'
p98
sS'vit c'
p99
S'536.7 mg'
p100
sS'vit k'
p101
S'73.66 mcg'
p102
sS'fol_dfe'
p103
S'302.43 mcg dfe'
p104
sS'fluor'
p105
S'0.0 mg'
p106
sS'phos'
p107
S'305.25 mg'
p108
sS'chln'
p109
S'65.79 mg'
p110
sS'insoluble fiber'
p111
S'12.36 g'
p112
sS'monofat'
p113
S'4.38 g'
p114
sS'iron'
p115
S'7.38 mg'
p116
sS'mang'
p117
S'1.32 mg'
p118
sS'calc'
p119
S'135.31 mg'
p120
sS'omega6'
p121
S'0.89 g'
p122
sS'omega3'
p123
S'0.1 g'
p124
sS'quantity'
p125
S'1.0 '
p126
ssS'supplierID'
p127
S'Euphebe'
p128
sS'ingredients'
p129
(dp130
S'tomato'
p131
S'9.64'
p132
sS'garlic cloves'
p133
S'3.97'
p134
sS'coconut milk'
p135
S'22.6'
p136
sS'oil'
p137
S'5.4'
p138
sS'lentils'
p139
S'45.36'
p140
sS'thyme'
p141
S'0.57'
p142
sS'euphebe organic vegetable stock'
p143
S'169.97'
p144
sS'balsamic vinegar'
p145
S'6.4'
p146
sS'fennel'
p147
S'90.72'
p148
sS'black pepper'
p149
S'0.57'
p150
sS'nutritional yeast'
p151
S'0.25'
p152
sS'white cooking wine'
p153
S'24'
p154
sS'sea salt'
p155
S'1.28'
p156
sS'tomatoes'
p157
S'170.1'
p158
sS'white onion'
p159
S'113.4'
p160
ssS'_id'
p161
S''
p162
sS'type'
p163
g162
sS'quantity'
p164
I0
sS'name'
p165
S'white lentil, tomato & fennel faux-sotto'
p166
sbasS'puy lentil & cabbage burger with roasted veggies'
p167
(lp168
(imodel
Meal
p169
(dp170
g5
(dp171
S'moly'
p172
S'3.82 mcg'
p173
sS'sodium'
p174
S'252.29 mg'
p175
sS'cals'
p176
S'264.08 kcal'
p177
sS'iodine'
p178
S'0.53 mcg'
p179
sS'chol'
p180
S'0.0 mg'
p181
sS'vit d-iu'
p182
S'0.0 iu'
p183
sS'alc'
p184
S'0.0 g'
p185
sS'zinc'
p186
S'0.21 mg'
p187
sS'caff'
p188
S'0.0 mg'
p189
sS'sel'
p190
S'0.35 mcg'
p191
sS'transfat'
p192
S'0.0 g'
p193
sS'wgt'
p194
S'180.71 g'
p195
sS'polyfat'
p196
S'1.15 g'
p197
sS'sugar'
p198
S'5.44 g'
p199
sS'prot'
p200
S'11.35 g'
p201
sS'totsolfib'
p202
S'2.07 g'
p203
sS'folate'
p204
S'16.26 mcg'
p205
sS'disacc'
p206
S'1.29 g'
p207
sS'vit a-rae'
p208
S'217.1 mcg'
p209
sS'monsac'
p210
S'1.98 g'
p211
sS'vit d-mcg'
p212
S'0.0 mcg'
p213
sS'fatcals'
p214
S'44.95 kcal'
p215
sS'biot'
p216
S'1.03 mcg'
p217
sS'caroten'
p218
S'434.2 mcg'
p219
sS'totfib'
p220
S'8.28 g'
p221
sS'betacaro'
p222
S'2183.73 mcg'
p223
sS'vit b1'
p224
S'0.18 mg'
p225
sS'ocarb'
p226
S'29.69 g'
p227
sS'vit b3'
p228
S'0.41 mg'
p229
sS'vit b2'
p230
S'0.05 mg'
p231
sS'potassium'
p232
S'333.01 mg'
p233
sS'vit b6'
p234
S'0.13 mg'
p235
sS'fat'
p236
S'5.03 g'
p237
sS'water'
p238
S'103.97 g'
p239
sS'vit b12'
p240
S'0.0 mcg'
p241
sS'copp'
p242
S'0.05 mg'
p243
sS'panto'
p244
S'0.15 mg'
p245
sS'satcals'
p246
S'6.81 kcal'
p247
sS'magn'
p248
S'50.34 mg'
p249
sS'vit e-a-toco'
p250
S'0.55 mg'
p251
sS'satfat'
p252
S'0.76 g'
p253
sS'carb'
p254
S'43.43 g'
p255
sS'vit a-iu'
p256
S'4341.99 iu'
p257
sS'chrom'
p258
S'0.17 mcg'
p259
sS'vit b3-ne'
p260
S'0.58 mg'
p261
sS'retinol'
p262
S'0.0 mcg'
p263
sS'vit c'
p264
S'19.6 mg'
p265
sS'vit k'
p266
S'25.59 mcg'
p267
sS'fol_dfe'
p268
S'16.26 mcg dfe'
p269
sS'fluor'
p270
S'0.03 mg'
p271
sS'phos'
p272
S'158.11 mg'
p273
sS'chln'
p274
S'8.54 mg'
p275
sS'insoluble fiber'
p276
S'6.21 g'
p277
sS'monofat'
p278
S'2.34 g'
p279
sS'iron'
p280
S'4.11 mg'
p281
sS'mang'
p282
S'0.25 mg'
p283
sS'calc'
p284
S'76.98 mg'
p285
sS'omega6'
p286
S'0.24 g'
p287
sS'omega3'
p288
S'0.03 g'
p289
sS'quantity'
p290
S'1.0 '
p291
ssg127
g128
sg129
(dp292
S'carrots, fresh, chopped'
p293
S'24.22'
p294
sS'oats, rolled, old fashioned, dry'
p295
S'35.14'
p296
sg137
S'1.97'
p297
sS'onion, yellow, fresh, chopped'
p298
S'26.58'
p299
sS'black pepper, ground'
p300
S'0.48'
p301
sS'garlic, minced'
p302
S'1.48'
p303
sS'basil, dried, ground'
p304
S'0.61'
p305
sS'water, tap'
p306
S'34.53'
p307
sS'cumin seeds, ground'
p308
S'0.48'
p309
sS'lentil'
p310
S'28.94'
p311
sS'sea salt'
p312
S'0.57'
p313
sS'cabbage'
p314
S'25.69'
p315
ssg161
g162
sg163
g162
sg164
I0
sg165
S'puy lentil & cabbage burger'
p316
sbasS'veggie heavy spanakopita with chickpea toast and olive and almond crumble'
p317
(lp318
(imodel
Meal
p319
(dp320
g5
(dp321
S'moly'
p322
S'6.69 mcg'
p323
sS'sodium'
p324
S'385.96 mg'
p325
sS'cals'
p326
S'163.37 kcal'
p327
sS'iodine'
p328
S'0.71 mcg'
p329
sS'chol'
p330
S'0.0 mg'
p331
sS'vit d-iu'
p332
S'0.0 iu'
p333
sS'alc'
p334
S'0.0 g'
p335
sS'zinc'
p336
S'1.38 mg'
p337
sS'caff'
p338
S'0.0 mg'
p339
sS'sel'
p340
S'10.05 mcg'
p341
sS'transfat'
p342
S'0.0 g'
p343
sS'wgt'
p344
S'384.08 g'
p345
sS'polyfat'
p346
S'0.76 g'
p347
sS'sugar'
p348
S'9.18 g'
p349
sS'prot'
p350
S'8.72 g'
p351
sS'totsolfib'
p352
S'0.37 g'
p353
sS'folate'
p354
S'276.4 mcg'
p355
sS'disacc'
p356
S'0.72 g'
p357
sS'vit a-rae'
p358
S'924.75 mcg'
p359
sS'monsac'
p360
S'8.42 g'
p361
sS'vit d-mcg'
p362
S'0.0 mcg'
p363
sS'fatcals'
p364
S'56.38 kcal'
p365
sS'biot'
p366
S'4.0 mcg'
p367
sS'caroten'
p368
S'1849.51 mcg'
p369
sS'totfib'
p370
S'8.22 g'
p371
sS'betacaro'
p372
S'11072.01 mcg'
p373
sS'vit b1'
p374
S'0.27 mg'
p375
sS'ocarb'
p376
S'3.65 g'
p377
sS'vit b3'
p378
S'2.39 mg'
p379
sS'vit b2'
p380
S'0.43 mg'
p381
sS'potassium'
p382
S'1100.82 mg'
p383
sS'vit b6'
p384
S'0.56 mg'
p385
sS'fat'
p386
S'6.35 g'
p387
sS'water'
p388
S'342.38 g'
p389
sS'vit b12'
p390
S'0.0 mcg'
p391
sS'copp'
p392
S'0.44 mg'
p393
sS'panto'
p394
S'0.81 mg'
p395
sS'satcals'
p396
S'7.42 kcal'
p397
sS'magn'
p398
S'148.12 mg'
p399
sS'vit e-a-toco'
p400
S'6.39 mg'
p401
sS'satfat'
p402
S'0.82 g'
p403
sS'carb'
p404
S'21.16 g'
p405
sS'vit a-iu'
p406
S'18495.06 iu'
p407
sS'chrom'
p408
S'0.33 mcg'
p409
sS'vit b3-ne'
p410
S'5.25 mg'
p411
sS'retinol'
p412
S'0.0 mcg'
p413
sS'vit c'
p414
S'52.78 mg'
p415
sS'vit k'
p416
S'620.47 mcg'
p417
sS'fol_dfe'
p418
S'276.4 mcg dfe'
p419
sS'fluor'
p420
S'0.0 mg'
p421
sS'phos'
p422
S'147.0 mg'
p423
sS'chln'
p424
S'72.28 mg'
p425
sS'insoluble fiber'
p426
S'7.85 g'
p427
sS'monofat'
p428
S'3.42 g'
p429
sS'iron'
p430
S'4.56 mg'
p431
sS'mang'
p432
S'1.4 mg'
p433
sS'calc'
p434
S'251.98 mg'
p435
sS'omega6'
p436
S'0.59 g'
p437
sS'omega3'
p438
S'0.17 g'
p439
sS'quantity'
p440
S'1.0 '
p441
ssg127
g128
sg129
(dp442
g131
S'47.33'
p443
sS'parsley, fresh, sprigs'
p444
S'2.4'
p445
sg137
S'4.58'
p446
sS'cauliflower florets, fresh'
p447
S'50.93'
p448
sS'tomatoes, crushed, canned'
p449
S'82.65'
p450
sS'spinach'
p451
S'151.12'
p452
sS'vinegar, balsamic'
p453
S'5.42'
p454
sS'garlic, minced'
p455
S'3.84'
p456
sS'onion, white, fresh, chopped'
p457
S'35.56'
p458
sS'sea salt'
p459
S'0.26'
p460
ssg161
g162
sg163
g162
sg164
I0
sg165
S'veggie spanakopita'
p461
sba(imodel
Meal
p462
(dp463
g5
(dp464
S'moly'
p465
S'6.5 mcg'
p466
sS'sodium'
p467
S'351.5 mg'
p468
sS'cals'
p469
S'189.13 kcal'
p470
sS'iodine'
p471
S'0.44 mcg'
p472
sS'chol'
p473
S'0.0 mg'
p474
sS'vit d-iu'
p475
S'0.0 iu'
p476
sS'alc'
p477
S'0.0 g'
p478
sS'zinc'
p479
S'0.69 mg'
p480
sS'caff'
p481
S'0.0 mg'
p482
sS'sel'
p483
S'0.91 mcg'
p484
sS'transfat'
p485
S'0.0 g'
p486
sS'wgt'
p487
S'48.94 g'
p488
sS'polyfat'
p489
S'2.72 g'
p490
sS'sugar'
p491
S'1.0 g'
p492
sS'prot'
p493
S'4.67 g'
p494
sS'totsolfib'
p495
S'0.33 g'
p496
sS'folate'
p497
S'10.04 mcg'
p498
sS'disacc'
p499
S'0.89 g'
p500
sS'vit a-rae'
p501
S'0.03 mcg'
p502
sS'monsac'
p503
S'0.11 g'
p504
sS'vit d-mcg'
p505
S'0.0 mcg'
p506
sS'fatcals'
p507
S'147.23 kcal'
p508
sS'biot'
p509
S'14.12 mcg'
p510
sS'caroten'
p511
S'0.05 mcg'
p512
sS'totfib'
p513
S'2.76 g'
p514
sS'betacaro'
p515
S'0.24 mcg'
p516
sS'vit b1'
p517
S'0.05 mg'
p518
sS'ocarb'
p519
S'4.16 g'
p520
sS'vit b3'
p521
S'0.8 mg'
p522
sS'vit b2'
p523
S'0.25 mg'
p524
sS'potassium'
p525
S'163.37 mg'
p526
sS'vit b6'
p527
S'0.03 mg'
p528
sS'fat'
p529
S'16.36 g'
p530
sS'water'
p531
S'2.54 g'
p532
sS'vit b12'
p533
S'0.0 mcg'
p534
sS'copp'
p535
S'0.23 mg'
p536
sS'panto'
p537
S'0.11 mg'
p538
sS'satcals'
p539
S'7.55 kcal'
p540
sS'magn'
p541
S'59.64 mg'
p542
sS'vit e-a-toco'
p543
S'5.65 mg'
p544
sS'satfat'
p545
S'0.84 g'
p546
sS'carb'
p547
S'7.92 g'
p548
sS'vit a-iu'
p549
S'0.54 iu'
p550
sS'chrom'
p551
S'0.0 mcg'
p552
sS'vit b3-ne'
p553
S'1.53 mg'
p554
sS'retinol'
p555
S'0.0 mcg'
p556
sS'vit c'
p557
S'0.66 mg'
p558
sS'vit k'
p559
S'0.0 mcg'
p560
sS'fol_dfe'
p561
S'10.04 mcg dfe'
p562
sS'fluor'
p563
S'0.0 mg'
p564
sS'phos'
p565
S'106.19 mg'
p566
sS'chln'
p567
S'11.57 mg'
p568
sS'insoluble fiber'
p569
S'2.43 g'
p570
sS'monofat'
p571
S'6.96 g'
p572
sS'iron'
p573
S'0.82 mg'
p574
sS'mang'
p575
S'0.48 mg'
p576
sS'calc'
p577
S'59.42 mg'
p578
sS'omega6'
p579
S'2.72 g'
p580
sS'omega3'
p581
S'0.0 g'
p582
sS'quantity'
p583
S'1.0 '
p584
ssg127
g128
sg129
(dp585
S'lemon juice, fresh'
p586
S'1.69'
p587
sS'olives, kalamata'
p588
S'25.2'
p589
sS'almonds, sliced'
p590
S'22.05'
p591
ssg161
g162
sg163
g162
sg164
I0
sg165
S'olive & almond crumble'
p592
sbasS'sweet potato & black bean burger with roasted veggies'
p593
(lp594
(imodel
Meal
p595
(dp596
g5
(dp597
S'moly'
p598
S'0.0 mcg'
p599
sS'sodium'
p600
S'243.93 mg'
p601
sS'cals'
p602
S'303.92 kcal'
p603
sS'iodine'
p604
S'2.74 mcg'
p605
sS'chol'
p606
S'0.0 mg'
p607
sS'vit d-iu'
p608
S'0.0 iu'
p609
sS'alc'
p610
S'0.0 g'
p611
sS'zinc'
p612
S'1.97 mg'
p613
sS'caff'
p614
S'0.0 mg'
p615
sS'sel'
p616
S'1.77 mcg'
p617
sS'transfat'
p618
S'0.0 g'
p619
sS'wgt'
p620
S'161.33 g'
p621
sS'polyfat'
p622
S'0.81 g'
p623
sS'sugar'
p624
S'7.37 g'
p625
sS'prot'
p626
S'13.43 g'
p627
sS'totsolfib'
p628
S'1.43 g'
p629
sS'folate'
p630
S'201.63 mcg'
p631
sS'disacc'
p632
S'4.59 g'
p633
sS'vit a-rae'
p634
S'835.4 mcg'
p635
sS'monsac'
p636
S'0.94 g'
p637
sS'vit d-mcg'
p638
S'0.0 mcg'
p639
sS'fatcals'
p640
S'18.54 kcal'
p641
sS'biot'
p642
S'3.66 mcg'
p643
sS'caroten'
p644
S'1670.79 mcg'
p645
sS'totfib'
p646
S'11.71 g'
p647
sS'betacaro'
p648
S'9984.71 mcg'
p649
sS'vit b1'
p650
S'0.55 mg'
p651
sS'ocarb'
p652
S'34.97 g'
p653
sS'vit b3'
p654
S'2.5 mg'
p655
sS'vit b2'
p656
S'0.2 mg'
p657
sS'potassium'
p658
S'1112.13 mg'
p659
sS'vit b6'
p660
S'0.41 mg'
p661
sS'fat'
p662
S'2.06 g'
p663
sS'water'
p664
S'71.88 g'
p665
sS'vit b12'
p666
S'0.0 mcg'
p667
sS'copp'
p668
S'0.56 mg'
p669
sS'panto'
p670
S'1.21 mg'
p671
sS'satcals'
p672
S'3.64 kcal'
p673
sS'magn'
p674
S'116.42 mg'
p675
sS'vit e-a-toco'
p676
S'0.88 mg'
p677
sS'satfat'
p678
S'0.4 g'
p679
sS'carb'
p680
S'59.7 g'
p681
sS'vit a-iu'
p682
S'16707.94 iu'
p683
sS'chrom'
p684
S'0.0 mcg'
p685
sS'vit b3-ne'
p686
S'5.02 mg'
p687
sS'retinol'
p688
S'0.0 mcg'
p689
sS'vit c'
p690
S'18.26 mg'
p691
sS'vit k'
p692
S'11.62 mcg'
p693
sS'fol_dfe'
p694
S'201.63 mcg dfe'
p695
sS'fluor'
p696
S'0.0 mg'
p697
sS'phos'
p698
S'260.75 mg'
p699
sS'chln'
p700
S'39.89 mg'
p701
sS'insoluble fiber'
p702
S'10.28 g'
p703
sS'monofat'
p704
S'0.41 g'
p705
sS'iron'
p706
S'3.63 mg'
p707
sS'mang'
p708
S'1.01 mg'
p709
sS'calc'
p710
S'99.73 mg'
p711
sS'omega6'
p712
S'0.39 g'
p713
sS'omega3'
p714
S'0.13 g'
p715
sS'quantity'
p716
S'1.0 '
p717
ssg127
g128
sg129
(dp718
S'oats, rolled, old fashioned, dry'
p719
S'11.34'
p720
sS'onion, red, fresh'
p721
S'11.34'
p722
sS'cayenne chili pepper, dried, ground'
p723
S'0.18'
p724
sS'millet, dry'
p725
S'7.09'
p726
sS'paprika'
p727
S'0.27'
p728
sS'cumin seeds, ground'
p729
S'0.44'
p730
sS'cilantro, fresh, leaves'
p731
S'2.21'
p732
sS'chili powder, eagle, food service'
p733
S'0.35'
p734
sS'sea salt'
p735
S'0.54'
p736
sS'sweet potatoes, baked, in skin, peeled'
p737
S'85.05'
p738
sS'black beans, dry'
p739
S'42.52'
p740
ssg161
g162
sg163
g162
sg164
I0
sg165
S'sweet potato and black bean burger'
p741
sbasS'cremini & shiitake mushroom soup with rosemary oat crumble'
p742
(lp743
(imodel
Meal
p744
(dp745
g5
(dp746
S'moly'
p747
S'2.17 mcg'
p748
sS'iodine'
p749
S'0.68 mcg'
p750
sS'chol'
p751
S'0.0 mg'
p752
sS'vit d-iu'
p753
S'4.76 iu'
p754
sS'alc'
p755
S'0.57 g'
p756
sS'zinc'
p757
S'1.54 mg'
p758
sS'caff'
p759
S'0.0 mg'
p760
sS'sel'
p761
S'7.51 mcg'
p762
sS'transfat'
p763
S'0.0 g'
p764
sS'wgt'
p765
S'340.5 g'
p766
sS'polyfat'
p767
S'2.09 g'
p768
sS'sodium'
p769
S'665.44 mg'
p770
sS'totsolfib'
p771
S'0.01 g'
p772
sS'folate'
p773
S'20.47 mcg'
p774
sS'disacc'
p775
S'0.36 g'
p776
sS'vit a-rae'
p777
S'39.54 mcg'
p778
sS'monsac'
p779
S'1.78 g'
p780
sS'vit d-mcg'
p781
S'0.11 mcg'
p782
sS'fatcals'
p783
S'134.76 kcal'
p784
sS'biot'
p785
S'1.21 mcg'
p786
sS'caroten'
p787
S'79.08 mcg'
p788
sS'totfib'
p789
S'13.93 g'
p790
sS'betacaro'
p791
S'461.37 mcg'
p792
sS'vit b1'
p793
S'0.05 mg'
p794
sS'ocarb'
p795
S'13.42 g'
p796
sS'vit b3'
p797
S'1.83 mg'
p798
sS'vit b2'
p799
S'0.18 mg'
p800
sS'potassium'
p801
S'663.99 mg'
p802
sS'vit b6'
p803
S'0.17 mg'
p804
sS'fat'
p805
S'15.07 g'
p806
sS'water'
p807
S'101.42 g'
p808
sS'vit b12'
p809
S'0.02 mcg'
p810
sS'copp'
p811
S'0.18 mg'
p812
sS'panto'
p813
S'0.77 mg'
p814
sS'satcals'
p815
S'21.27 kcal'
p816
sS'magn'
p817
S'57.4 mg'
p818
sS'vit e-a-toco'
p819
S'0.8 mg'
p820
sS'satfat'
p821
S'2.36 g'
p822
sS'carb'
p823
S'35.44 g'
p824
sS'vit a-iu'
p825
S'790.8 iu'
p826
sS'chrom'
p827
S'0.09 mcg'
p828
sS'vit b3-ne'
p829
S'2.22 mg'
p830
sS'retinol'
p831
S'0.0 mcg'
p832
sS'vit c'
p833
S'10.97 mg'
p834
sS'vit k'
p835
S'4.39 mcg'
p836
sS'fol_dfe'
p837
S'20.47 mcg dfe'
p838
sS'fluor'
p839
S'0.01 mg'
p840
sS'phos'
p841
S'171.41 mg'
p842
sS'chln'
p843
S'8.54 mg'
p844
sS'insoluble fiber'
p845
S'13.92 g'
p846
sS'monofat'
p847
S'9.15 g'
p848
sS'iron'
p849
S'4.49 mg'
p850
sS'mang'
p851
S'0.24 mg'
p852
sS'calc'
p853
S'98.0 mg'
p854
sS'omega6'
p855
S'0.55 g'
p856
sS'omega3'
p857
S'0.05 g'
p858
sS'quantity'
p859
S'1.0 '
p860
ssg127
g128
sg129
(dp861
S'cannellini beans'
p862
S'28.35'
p863
sS'chives'
p864
S'2.83'
p865
sg137
S'5.4'
p866
sS'thyme'
p867
S'0.57'
p868
sS'brown mushrooms'
p869
S'22.68'
p870
sS'black pepper'
p871
S'0.57'
p872
sS'euphebe organic vegetable stock'
p873
S'163.17'
p874
sS'water'
p875
S'15.78'
p876
sS'lemon juice'
p877
S'6.1'
p878
sS'cashews'
p879
S'20.78'
p880
sS'shallots'
p881
S'9.41'
p882
sS'white cooking wine'
p883
S'6'
p884
sS'sea salt'
p885
S'1.59'
p886
sS'rosemary'
p887
S'0.57'
p888
sS'shiitake mushrooms'
p889
S'22.68'
p890
sS'white onion'
p891
S'34.02'
p892
ssg161
g162
sg163
g162
sg164
I0
sg165
S'cremini & shiitake mushroom soup'
p893
sbasS'roasted chickpea & tahini soup'
p894
(lp895
(imodel
Meal
p896
(dp897
g5
(dp898
S'moly'
p899
S'1.45 mcg'
p900
sS'sodium'
p901
S'766.92 mg'
p902
sS'cals'
p903
S'389.34 kcal'
p904
sS'iodine'
p905
S'0.58 mcg'
p906
sS'chol'
p907
S'0.0 mg'
p908
sS'vit d-iu'
p909
S'0.0 iu'
p910
sS'alc'
p911
S'0.0 g'
p912
sS'zinc'
p913
S'1.64 mg'
p914
sS'caff'
p915
S'0.0 mg'
p916
sS'sel'
p917
S'2.5 mcg'
p918
sS'transfat'
p919
S'0.0 g'
p920
sS'wgt'
p921
S'421.99 g'
p922
sS'polyfat'
p923
S'3.76 g'
p924
sS'sugar'
p925
S'8.62 g'
p926
sS'prot'
p927
S'15.25 g'
p928
sS'totsolfib'
p929
S'2.0 g'
p930
sS'folate'
p931
S'312.53 mcg'
p932
sS'disacc'
p933
S'0.29 g'
p934
sS'vit a-rae'
p935
S'146.45 mcg'
p936
sS'monsac'
p937
S'0.94 g'
p938
sS'vit d-mcg'
p939
S'0.0 mcg'
p940
sS'fatcals'
p941
S'113.73 kcal'
p942
sS'biot'
p943
S'1.01 mcg'
p944
sS'caroten'
p945
S'292.9 mcg'
p946
sS'totfib'
p947
S'10.27 g'
p948
sS'betacaro'
p949
S'132.26 mcg'
p950
sS'vit b1'
p951
S'0.34 mg'
p952
sS'ocarb'
p953
S'33.88 g'
p954
sS'vit b3'
p955
S'1.16 mg'
p956
sS'vit b2'
p957
S'0.12 mg'
p958
sS'potassium'
p959
S'417.55 mg'
p960
sS'vit b6'
p961
S'0.3 mg'
p962
sS'fat'
p963
S'12.64 g'
p964
sS'water'
p965
S'42.86 g'
p966
sS'vit b12'
p967
S'0.0 mcg'
p968
sS'copp'
p969
S'0.43 mg'
p970
sS'panto'
p971
S'0.77 mg'
p972
sS'satcals'
p973
S'15.51 kcal'
p974
sS'magn'
p975
S'64.09 mg'
p976
sS'vit e-a-toco'
p977
S'0.54 mg'
p978
sS'satfat'
p979
S'1.72 g'
p980
sS'carb'
p981
S'53.91 g'
p982
sS'vit a-iu'
p983
S'2929.05 iu'
p984
sS'chrom'
p985
S'0.08 mcg'
p986
sS'vit b3-ne'
p987
S'2.76 mg'
p988
sS'retinol'
p989
S'0.0 mcg'
p990
sS'vit c'
p991
S'13.78 mg'
p992
sS'vit k'
p993
S'121.61 mcg'
p994
sS'fol_dfe'
p995
S'266.98 mcg dfe'
p996
sS'fluor'
p997
S'0.01 mg'
p998
sS'phos'
p999
S'178.23 mg'
p1000
sS'chln'
p1001
S'47.43 mg'
p1002
sS'insoluble fiber'
p1003
S'8.27 g'
p1004
sS'monofat'
p1005
S'5.2 g'
p1006
sS'iron'
p1007
S'4.9 mg'
p1008
sS'mang'
p1009
S'10.07 mg'
p1010
sS'calc'
p1011
S'153.93 mg'
p1012
sS'omega6'
p1013
S'2.76 g'
p1014
sS'omega3'
p1015
S'0.08 g'
p1016
sS'quantity'
p1017
S'1.0 '
p1018
ssg127
g128
sg129
(dp1019
S'onion, yellow, fresh, chopped'
p1020
S'28.96'
p1021
sS'cayenne chili pepper, dried, ground'
p1022
S'0.51'
p1023
sS'garlic, minced'
p1024
S'4.96'
p1025
sS'potato, yukon gold, fresh, diced'
p1026
S'70.17'
p1027
sS'broth, vegetable, low sodium'
p1028
S'215.21'
p1029
sS'cumin seeds, ground'
p1030
S'0.53'
p1031
sS'raw'
p1032
S'12.87'
p1033
sS'chickpeas, dry'
p1034
S'45.66'
p1035
sS'coriander seed, ground'
p1036
S'0.47'
p1037
sS'water, tap'
p1038
S'9.78'
p1039
sS'tahini'
p1040
S'6.64'
p1041
sS'sea salt'
p1042
S'1.53'
p1043
sS'spinach, baby, fresh'
p1044
S'24.2'
p1045
sS'black pepper, ground'
p1046
S'0.51'
p1047
ssg161
g162
sg163
g162
sg164
I0
sg165
S'roasted chickpea & tahini soup'
p1048
sbasS'tomato & cannellini bean soup'
p1049
(lp1050
(imodel
Meal
p1051
(dp1052
g5
(dp1053
S'moly'
p1054
S'3.48 mcg'
p1055
sS'sodium'
p1056
S'769.37 mg'
p1057
sS'cals'
p1058
S'317.67 kcal'
p1059
sS'iodine'
p1060
S'0.84 mcg'
p1061
sS'chol'
p1062
S'0.0 mg'
p1063
sS'vit d-iu'
p1064
S'0.0 iu'
p1065
sS'alc'
p1066
S'0.0 g'
p1067
sS'zinc'
p1068
S'2.06 mg'
p1069
sS'caff'
p1070
S'0.0 mg'
p1071
sS'sel'
p1072
S'8.76 mcg'
p1073
sS'transfat'
p1074
S'0.0 g'
p1075
sS'wgt'
p1076
S'473.81 g'
p1077
sS'polyfat'
p1078
S'0.59 g'
p1079
sS'sugar'
p1080
S'9.33 g'
p1081
sS'prot'
p1082
S'17.11 g'
p1083
sS'totsolfib'
p1084
S'4.95 g'
p1085
sS'folate'
p1086
S'303.93 mcg'
p1087
sS'disacc'
p1088
S'1.46 g'
p1089
sS'vit a-rae'
p1090
S'317.66 mcg'
p1091
sS'monsac'
p1092
S'3.59 g'
p1093
sS'vit d-mcg'
p1094
S'0.0 mcg'
p1095
sS'fatcals'
p1096
S'25.09 kcal'
p1097
sS'biot'
p1098
S'3.56 mcg'
p1099
sS'caroten'
p1100
S'635.32 mcg'
p1101
sS'totfib'
p1102
S'20.93 g'
p1103
sS'betacaro'
p1104
S'2422.5 mcg'
p1105
sS'vit b1'
p1106
S'0.53 mg'
p1107
sS'ocarb'
p1108
S'3.37 g'
p1109
sS'vit b3'
p1110
S'1.7 mg'
p1111
sS'vit b2'
p1112
S'0.2 mg'
p1113
sS'potassium'
p1114
S'1447.86 mg'
p1115
sS'vit b6'
p1116
S'0.42 mg'
p1117
sS'fat'
p1118
S'2.82 g'
p1119
sS'water'
p1120
S'121.8 g'
p1121
sS'vit b12'
p1122
S'0.0 mcg'
p1123
sS'copp'
p1124
S'0.5 mg'
p1125
sS'panto'
p1126
S'0.76 mg'
p1127
sS'satcals'
p1128
S'4.16 kcal'
p1129
sS'magn'
p1130
S'147.75 mg'
p1131
sS'vit e-a-toco'
p1132
S'1.17 mg'
p1133
sS'satfat'
p1134
S'0.46 g'
p1135
sS'carb'
p1136
S'57.61 g'
p1137
sS'vit a-iu'
p1138
S'6353.2 iu'
p1139
sS'chrom'
p1140
S'0.13 mcg'
p1141
sS'vit b3-ne'
p1142
S'4.58 mg'
p1143
sS'retinol'
p1144
S'0.0 mcg'
p1145
sS'vit c'
p1146
S'17.93 mg'
p1147
sS'vit k'
p1148
S'103.65 mcg'
p1149
sS'fol_dfe'
p1150
S'265.81 mcg dfe'
p1151
sS'fluor'
p1152
S'0.02 mg'
p1153
sS'phos'
p1154
S'321.46 mg'
p1155
sS'chln'
p1156
S'10.39 mg'
p1157
sS'insoluble fiber'
p1158
S'15.98 g'
p1159
sS'monofat'
p1160
S'1.23 g'
p1161
sS'iron'
p1162
S'6.99 mg'
p1163
sS'mang'
p1164
S'1.21 mg'
p1165
sS'calc'
p1166
S'161.01 mg'
p1167
sS'omega6'
p1168
S'0.43 g'
p1169
sS'omega3'
p1170
S'0.17 g'
p1171
sS'quantity'
p1172
S'1.0 '
p1173
ssg127
g128
sg129
(dp1174
S'carrots, fresh, chopped'
p1175
S'27.54'
p1176
sS'tomato sauce, canned'
p1177
S'52.5'
p1178
sg137
S'1.54'
p1179
sS'tomatoes, crushed, canned'
p1180
S'48.6'
p1181
sS'bay leaf, dried'
p1182
S'0.07'
p1183
sS'black pepper, ground'
p1184
S'0.15'
p1185
sS'sage, fresh'
p1186
S'0.25'
p1187
sS'garlic, minced'
p1188
S'1.62'
p1189
sS'onion, white, fresh, chopped'
p1190
S'42.12'
p1191
sS'euphebe organic vegetable stock'
p1192
S'210.44'
p1193
sS'cumin seeds, ground'
p1194
S'0.25'
p1195
sS'lemon juice, fresh'
p1196
S'3.49'
p1197
sS'beans, small white, dry'
p1198
S'63.99'
p1199
sS'sea salt'
p1200
S'0.99'
p1201
sS'spinach, baby, fresh'
p1202
S'20.25'
p1203
ssg161
g162
sg163
g162
sg164
I0
sg165
S'tomato & cannellini bean soup'
p1204
sbas.