(dp0
S'Tomato'
p1
(lp2
S'tomatoes'
p3
aS'tomato sauce'
p4
asS'Oil, butter'
p5
(lp6
S'oil, coconut'
p7
asS'Cauliflower'
p8
(lp9
S'cauliflower'
p10
asS'Onions'
p11
(lp12
S'red onion'
p13
asS'Coconut Oil'
p14
(lp15
S'coconut oil'
p16
ag7
asS'Carrots'
p17
(lp18
S'carrots'
p19
aS'carrots, fresh'
p20
asS'Avocado'
p21
(lp22
S'avocado'
p23
asS'Ginger'
p24
(lp25
S'ginger root'
p26
asS'Celery'
p27
(lp28
S'celery'
p29
aS'celery root'
p30
asS'Brussel Sprouts'
p31
(lp32
S'brussels sprouts'
p33
aS'brussels sprouts, fresh'
p34
asS'Garlic'
p35
(lp36
S'garlic'
p37
aS'garlic '
p38
aS'garlic powder'
p39
aS'garlic, minced'
p40
asS'Peppers'
p41
(lp42
S'black pepper'
p43
aS'poblano peppers'
p44
aS'capers'
p45
aS'jalapeno peppers'
p46
aS'bell pepper'
p47
asS'Vitamin K'
p48
(lp49
S'Vit K'
p50
asS'Salt'
p51
(lp52
S'sea salt'
p53
aS'Sea Salt'
p54
asS'Turmeric (Curcumin)'
p55
(lp56
S'turmeric, ground'
p57
asS'Omega3'
p58
(lp59
S'Omega3'
p60
as.